ARM GAS  /tmp/ccmYNNNe.s 			page 1


   1              		.syntax unified
   2              		.cpu cortex-m4
   3              		.eabi_attribute 27, 1
   4              		.eabi_attribute 28, 1
   5              		.fpu fpv4-sp-d16
   6              		.eabi_attribute 20, 1
   7              		.eabi_attribute 21, 1
   8              		.eabi_attribute 23, 3
   9              		.eabi_attribute 24, 1
  10              		.eabi_attribute 25, 1
  11              		.eabi_attribute 26, 1
  12              		.eabi_attribute 30, 1
  13              		.eabi_attribute 34, 1
  14              		.eabi_attribute 18, 4
  15              		.thumb
  16              		.file	"gpio.c"
  17              		.text
  18              	.Ltext0:
  19              		.cfi_sections	.debug_frame
  20              		.section	.text.MX_GPIO_Init,"ax",%progbits
  21              		.align	2
  22              		.global	MX_GPIO_Init
  23              		.thumb
  24              		.thumb_func
  26              	MX_GPIO_Init:
  27              	.LFB125:
  28              		.file 1 "Src/gpio.c"
   1:Src/gpio.c    **** /**
   2:Src/gpio.c    ****   ******************************************************************************
   3:Src/gpio.c    ****   * File Name          : gpio.c
   4:Src/gpio.c    ****   * Description        : This file provides code for the configuration
   5:Src/gpio.c    ****   *                      of all used GPIO pins.
   6:Src/gpio.c    ****   ******************************************************************************
   7:Src/gpio.c    ****   ** This notice applies to any and all portions of this file
   8:Src/gpio.c    ****   * that are not between comment pairs USER CODE BEGIN and
   9:Src/gpio.c    ****   * USER CODE END. Other portions of this file, whether 
  10:Src/gpio.c    ****   * inserted by the user or by software development tools
  11:Src/gpio.c    ****   * are owned by their respective copyright owners.
  12:Src/gpio.c    ****   *
  13:Src/gpio.c    ****   * COPYRIGHT(c) 2017 STMicroelectronics
  14:Src/gpio.c    ****   *
  15:Src/gpio.c    ****   * Redistribution and use in source and binary forms, with or without modification,
  16:Src/gpio.c    ****   * are permitted provided that the following conditions are met:
  17:Src/gpio.c    ****   *   1. Redistributions of source code must retain the above copyright notice,
  18:Src/gpio.c    ****   *      this list of conditions and the following disclaimer.
  19:Src/gpio.c    ****   *   2. Redistributions in binary form must reproduce the above copyright notice,
  20:Src/gpio.c    ****   *      this list of conditions and the following disclaimer in the documentation
  21:Src/gpio.c    ****   *      and/or other materials provided with the distribution.
  22:Src/gpio.c    ****   *   3. Neither the name of STMicroelectronics nor the names of its contributors
  23:Src/gpio.c    ****   *      may be used to endorse or promote products derived from this software
  24:Src/gpio.c    ****   *      without specific prior written permission.
  25:Src/gpio.c    ****   *
  26:Src/gpio.c    ****   * THIS SOFTWARE IS PROVIDED BY THE COPYRIGHT HOLDERS AND CONTRIBUTORS "AS IS"
  27:Src/gpio.c    ****   * AND ANY EXPRESS OR IMPLIED WARRANTIES, INCLUDING, BUT NOT LIMITED TO, THE
  28:Src/gpio.c    ****   * IMPLIED WARRANTIES OF MERCHANTABILITY AND FITNESS FOR A PARTICULAR PURPOSE ARE
  29:Src/gpio.c    ****   * DISCLAIMED. IN NO EVENT SHALL THE COPYRIGHT HOLDER OR CONTRIBUTORS BE LIABLE
  30:Src/gpio.c    ****   * FOR ANY DIRECT, INDIRECT, INCIDENTAL, SPECIAL, EXEMPLARY, OR CONSEQUENTIAL
ARM GAS  /tmp/ccmYNNNe.s 			page 2


  31:Src/gpio.c    ****   * DAMAGES (INCLUDING, BUT NOT LIMITED TO, PROCUREMENT OF SUBSTITUTE GOODS OR
  32:Src/gpio.c    ****   * SERVICES; LOSS OF USE, DATA, OR PROFITS; OR BUSINESS INTERRUPTION) HOWEVER
  33:Src/gpio.c    ****   * CAUSED AND ON ANY THEORY OF LIABILITY, WHETHER IN CONTRACT, STRICT LIABILITY,
  34:Src/gpio.c    ****   * OR TORT (INCLUDING NEGLIGENCE OR OTHERWISE) ARISING IN ANY WAY OUT OF THE USE
  35:Src/gpio.c    ****   * OF THIS SOFTWARE, EVEN IF ADVISED OF THE POSSIBILITY OF SUCH DAMAGE.
  36:Src/gpio.c    ****   *
  37:Src/gpio.c    ****   ******************************************************************************
  38:Src/gpio.c    ****   */
  39:Src/gpio.c    **** 
  40:Src/gpio.c    **** /* Includes ------------------------------------------------------------------*/
  41:Src/gpio.c    **** #include "gpio.h"
  42:Src/gpio.c    **** /* USER CODE BEGIN 0 */
  43:Src/gpio.c    **** 
  44:Src/gpio.c    **** /* USER CODE END 0 */
  45:Src/gpio.c    **** 
  46:Src/gpio.c    **** /*----------------------------------------------------------------------------*/
  47:Src/gpio.c    **** /* Configure GPIO                                                             */
  48:Src/gpio.c    **** /*----------------------------------------------------------------------------*/
  49:Src/gpio.c    **** /* USER CODE BEGIN 1 */
  50:Src/gpio.c    **** 
  51:Src/gpio.c    **** /* USER CODE END 1 */
  52:Src/gpio.c    **** 
  53:Src/gpio.c    **** /** Configure pins as 
  54:Src/gpio.c    ****         * Analog 
  55:Src/gpio.c    ****         * Input 
  56:Src/gpio.c    ****         * Output
  57:Src/gpio.c    ****         * EVENT_OUT
  58:Src/gpio.c    ****         * EXTI
  59:Src/gpio.c    **** */
  60:Src/gpio.c    **** void MX_GPIO_Init(void)
  61:Src/gpio.c    **** {
  29              		.loc 1 61 0
  30              		.cfi_startproc
  31              		@ args = 0, pretend = 0, frame = 32
  32              		@ frame_needed = 0, uses_anonymous_args = 0
  33 0000 70B5     		push	{r4, r5, r6, lr}
  34              	.LCFI0:
  35              		.cfi_def_cfa_offset 16
  36              		.cfi_offset 4, -16
  37              		.cfi_offset 5, -12
  38              		.cfi_offset 6, -8
  39              		.cfi_offset 14, -4
  40 0002 88B0     		sub	sp, sp, #32
  41              	.LCFI1:
  42              		.cfi_def_cfa_offset 48
  43              	.LBB2:
  62:Src/gpio.c    **** 
  63:Src/gpio.c    ****   GPIO_InitTypeDef GPIO_InitStruct;
  64:Src/gpio.c    **** 
  65:Src/gpio.c    ****   /* GPIO Ports Clock Enable */
  66:Src/gpio.c    ****   __HAL_RCC_GPIOC_CLK_ENABLE();
  44              		.loc 1 66 0
  45 0004 204B     		ldr	r3, .L3
  46 0006 DA6C     		ldr	r2, [r3, #76]
  47 0008 42F00402 		orr	r2, r2, #4
  48 000c DA64     		str	r2, [r3, #76]
  49 000e DA6C     		ldr	r2, [r3, #76]
ARM GAS  /tmp/ccmYNNNe.s 			page 3


  50 0010 02F00402 		and	r2, r2, #4
  51 0014 0092     		str	r2, [sp]
  52 0016 009A     		ldr	r2, [sp]
  53              	.LBE2:
  54              	.LBB3:
  67:Src/gpio.c    ****   __HAL_RCC_GPIOA_CLK_ENABLE();
  55              		.loc 1 67 0
  56 0018 DA6C     		ldr	r2, [r3, #76]
  57 001a 42F00102 		orr	r2, r2, #1
  58 001e DA64     		str	r2, [r3, #76]
  59 0020 DA6C     		ldr	r2, [r3, #76]
  60 0022 02F00102 		and	r2, r2, #1
  61 0026 0192     		str	r2, [sp, #4]
  62 0028 019A     		ldr	r2, [sp, #4]
  63              	.LBE3:
  64              	.LBB4:
  68:Src/gpio.c    ****   __HAL_RCC_GPIOB_CLK_ENABLE();
  65              		.loc 1 68 0
  66 002a DA6C     		ldr	r2, [r3, #76]
  67 002c 42F00202 		orr	r2, r2, #2
  68 0030 DA64     		str	r2, [r3, #76]
  69 0032 DB6C     		ldr	r3, [r3, #76]
  70 0034 03F00203 		and	r3, r3, #2
  71 0038 0293     		str	r3, [sp, #8]
  72 003a 029B     		ldr	r3, [sp, #8]
  73              	.LBE4:
  69:Src/gpio.c    **** 
  70:Src/gpio.c    ****   /*Configure GPIO pin Output Level */
  71:Src/gpio.c    ****   HAL_GPIO_WritePin(GPIOA, PIN_A3_Pin|PIN_A4_Pin|PIN_D9_Pin|PIN_D10_Pin 
  74              		.loc 1 71 0
  75 003c 4FF09040 		mov	r0, #1207959552
  76 0040 41F63011 		movw	r1, #6448
  77 0044 0022     		movs	r2, #0
  78 0046 FFF7FEFF 		bl	HAL_GPIO_WritePin
  79              	.LVL0:
  72:Src/gpio.c    ****                           |PIN_D2_Pin, GPIO_PIN_RESET);
  73:Src/gpio.c    **** 
  74:Src/gpio.c    ****   /*Configure GPIO pin Output Level */
  75:Src/gpio.c    ****   HAL_GPIO_WritePin(GPIOB, LD3_Pin|PIN_D12_Pin|GPIO_PIN_5, GPIO_PIN_RESET);
  80              		.loc 1 75 0
  81 004a 104D     		ldr	r5, .L3+4
  82 004c 2846     		mov	r0, r5
  83 004e 3821     		movs	r1, #56
  84 0050 0022     		movs	r2, #0
  85 0052 FFF7FEFF 		bl	HAL_GPIO_WritePin
  86              	.LVL1:
  76:Src/gpio.c    **** 
  77:Src/gpio.c    ****   /*Configure GPIO pins : PAPin PAPin PAPin PAPin 
  78:Src/gpio.c    ****                            PAPin */
  79:Src/gpio.c    ****   GPIO_InitStruct.Pin = PIN_A3_Pin|PIN_A4_Pin|PIN_D9_Pin|PIN_D10_Pin 
  87              		.loc 1 79 0
  88 0056 41F63013 		movw	r3, #6448
  89 005a 0393     		str	r3, [sp, #12]
  80:Src/gpio.c    ****                           |PIN_D2_Pin;
  81:Src/gpio.c    ****   GPIO_InitStruct.Mode = GPIO_MODE_OUTPUT_PP;
  90              		.loc 1 81 0
  91 005c 0126     		movs	r6, #1
ARM GAS  /tmp/ccmYNNNe.s 			page 4


  92 005e 0496     		str	r6, [sp, #16]
  82:Src/gpio.c    ****   GPIO_InitStruct.Pull = GPIO_NOPULL;
  93              		.loc 1 82 0
  94 0060 0024     		movs	r4, #0
  95 0062 0594     		str	r4, [sp, #20]
  83:Src/gpio.c    ****   GPIO_InitStruct.Speed = GPIO_SPEED_FREQ_LOW;
  96              		.loc 1 83 0
  97 0064 0694     		str	r4, [sp, #24]
  84:Src/gpio.c    ****   HAL_GPIO_Init(GPIOA, &GPIO_InitStruct);
  98              		.loc 1 84 0
  99 0066 4FF09040 		mov	r0, #1207959552
 100 006a 03A9     		add	r1, sp, #12
 101 006c FFF7FEFF 		bl	HAL_GPIO_Init
 102              	.LVL2:
  85:Src/gpio.c    **** 
  86:Src/gpio.c    ****   /*Configure GPIO pins : PBPin PBPin PB5 */
  87:Src/gpio.c    ****   GPIO_InitStruct.Pin = LD3_Pin|PIN_D12_Pin|GPIO_PIN_5;
 103              		.loc 1 87 0
 104 0070 3823     		movs	r3, #56
 105 0072 0393     		str	r3, [sp, #12]
  88:Src/gpio.c    ****   GPIO_InitStruct.Mode = GPIO_MODE_OUTPUT_PP;
 106              		.loc 1 88 0
 107 0074 0496     		str	r6, [sp, #16]
  89:Src/gpio.c    ****   GPIO_InitStruct.Pull = GPIO_NOPULL;
 108              		.loc 1 89 0
 109 0076 0594     		str	r4, [sp, #20]
  90:Src/gpio.c    ****   GPIO_InitStruct.Speed = GPIO_SPEED_FREQ_LOW;
 110              		.loc 1 90 0
 111 0078 0694     		str	r4, [sp, #24]
  91:Src/gpio.c    ****   HAL_GPIO_Init(GPIOB, &GPIO_InitStruct);
 112              		.loc 1 91 0
 113 007a 2846     		mov	r0, r5
 114 007c 03A9     		add	r1, sp, #12
 115 007e FFF7FEFF 		bl	HAL_GPIO_Init
 116              	.LVL3:
  92:Src/gpio.c    **** 
  93:Src/gpio.c    **** }
 117              		.loc 1 93 0
 118 0082 08B0     		add	sp, sp, #32
 119              	.LCFI2:
 120              		.cfi_def_cfa_offset 16
 121              		@ sp needed
 122 0084 70BD     		pop	{r4, r5, r6, pc}
 123              	.L4:
 124 0086 00BF     		.align	2
 125              	.L3:
 126 0088 00100240 		.word	1073876992
 127 008c 00040048 		.word	1207960576
 128              		.cfi_endproc
 129              	.LFE125:
 131              		.text
 132              	.Letext0:
 133              		.file 2 "/usr/include/newlib/machine/_default_types.h"
 134              		.file 3 "/usr/include/newlib/sys/_stdint.h"
 135              		.file 4 "Drivers/CMSIS/Device/ST/STM32L4xx/Include/stm32l432xx.h"
 136              		.file 5 "Drivers/STM32L4xx_HAL_Driver/Inc/stm32l4xx_hal_gpio.h"
 137              		.file 6 "Drivers/CMSIS/Include/core_cm4.h"
ARM GAS  /tmp/ccmYNNNe.s 			page 5


ARM GAS  /tmp/ccmYNNNe.s 			page 6

