ARM GAS  /tmp/ccDPUS3s.s 			page 1


   1              		.syntax unified
   2              		.cpu cortex-m4
   3              		.eabi_attribute 27, 1
   4              		.eabi_attribute 28, 1
   5              		.fpu fpv4-sp-d16
   6              		.eabi_attribute 20, 1
   7              		.eabi_attribute 21, 1
   8              		.eabi_attribute 23, 3
   9              		.eabi_attribute 24, 1
  10              		.eabi_attribute 25, 1
  11              		.eabi_attribute 26, 1
  12              		.eabi_attribute 30, 1
  13              		.eabi_attribute 34, 1
  14              		.eabi_attribute 18, 4
  15              		.thumb
  16              		.file	"main.c"
  17              		.text
  18              	.Ltext0:
  19              		.cfi_sections	.debug_frame
  20              		.section	.text._Error_Handler,"ax",%progbits
  21              		.align	2
  22              		.global	_Error_Handler
  23              		.thumb
  24              		.thumb_func
  26              	_Error_Handler:
  27              	.LFB127:
  28              		.file 1 "Src/main.c"
   1:Src/main.c    **** /**
   2:Src/main.c    ****   ******************************************************************************
   3:Src/main.c    ****   * File Name          : main.c
   4:Src/main.c    ****   * Description        : Main program body
   5:Src/main.c    ****   ******************************************************************************
   6:Src/main.c    ****   ** This notice applies to any and all portions of this file
   7:Src/main.c    ****   * that are not between comment pairs USER CODE BEGIN and
   8:Src/main.c    ****   * USER CODE END. Other portions of this file, whether 
   9:Src/main.c    ****   * inserted by the user or by software development tools
  10:Src/main.c    ****   * are owned by their respective copyright owners.
  11:Src/main.c    ****   *
  12:Src/main.c    ****   * COPYRIGHT(c) 2017 STMicroelectronics
  13:Src/main.c    ****   *
  14:Src/main.c    ****   * Redistribution and use in source and binary forms, with or without modification,
  15:Src/main.c    ****   * are permitted provided that the following conditions are met:
  16:Src/main.c    ****   *   1. Redistributions of source code must retain the above copyright notice,
  17:Src/main.c    ****   *      this list of conditions and the following disclaimer.
  18:Src/main.c    ****   *   2. Redistributions in binary form must reproduce the above copyright notice,
  19:Src/main.c    ****   *      this list of conditions and the following disclaimer in the documentation
  20:Src/main.c    ****   *      and/or other materials provided with the distribution.
  21:Src/main.c    ****   *   3. Neither the name of STMicroelectronics nor the names of its contributors
  22:Src/main.c    ****   *      may be used to endorse or promote products derived from this software
  23:Src/main.c    ****   *      without specific prior written permission.
  24:Src/main.c    ****   *
  25:Src/main.c    ****   * THIS SOFTWARE IS PROVIDED BY THE COPYRIGHT HOLDERS AND CONTRIBUTORS "AS IS"
  26:Src/main.c    ****   * AND ANY EXPRESS OR IMPLIED WARRANTIES, INCLUDING, BUT NOT LIMITED TO, THE
  27:Src/main.c    ****   * IMPLIED WARRANTIES OF MERCHANTABILITY AND FITNESS FOR A PARTICULAR PURPOSE ARE
  28:Src/main.c    ****   * DISCLAIMED. IN NO EVENT SHALL THE COPYRIGHT HOLDER OR CONTRIBUTORS BE LIABLE
  29:Src/main.c    ****   * FOR ANY DIRECT, INDIRECT, INCIDENTAL, SPECIAL, EXEMPLARY, OR CONSEQUENTIAL
  30:Src/main.c    ****   * DAMAGES (INCLUDING, BUT NOT LIMITED TO, PROCUREMENT OF SUBSTITUTE GOODS OR
ARM GAS  /tmp/ccDPUS3s.s 			page 2


  31:Src/main.c    ****   * SERVICES; LOSS OF USE, DATA, OR PROFITS; OR BUSINESS INTERRUPTION) HOWEVER
  32:Src/main.c    ****   * CAUSED AND ON ANY THEORY OF LIABILITY, WHETHER IN CONTRACT, STRICT LIABILITY,
  33:Src/main.c    ****   * OR TORT (INCLUDING NEGLIGENCE OR OTHERWISE) ARISING IN ANY WAY OUT OF THE USE
  34:Src/main.c    ****   * OF THIS SOFTWARE, EVEN IF ADVISED OF THE POSSIBILITY OF SUCH DAMAGE.
  35:Src/main.c    ****   *
  36:Src/main.c    ****   ******************************************************************************
  37:Src/main.c    ****   */
  38:Src/main.c    **** 
  39:Src/main.c    **** /* Includes ------------------------------------------------------------------*/
  40:Src/main.c    **** #include "main.h"
  41:Src/main.c    **** #include "stm32l4xx_hal.h"
  42:Src/main.c    **** #include "dma.h"
  43:Src/main.c    **** #include "i2c.h"
  44:Src/main.c    **** #include "tim.h"
  45:Src/main.c    **** #include "usart.h"
  46:Src/main.c    **** #include "gpio.h"
  47:Src/main.c    **** 
  48:Src/main.c    **** /* USER CODE BEGIN Includes */
  49:Src/main.c    **** 
  50:Src/main.c    **** /* USER CODE END Includes */
  51:Src/main.c    **** 
  52:Src/main.c    **** /* Private variables ---------------------------------------------------------*/
  53:Src/main.c    **** 
  54:Src/main.c    **** /* USER CODE BEGIN PV */
  55:Src/main.c    **** /* Private variables ---------------------------------------------------------*/
  56:Src/main.c    **** 
  57:Src/main.c    **** /* USER CODE END PV */
  58:Src/main.c    **** 
  59:Src/main.c    **** /* Private function prototypes -----------------------------------------------*/
  60:Src/main.c    **** void SystemClock_Config(void);
  61:Src/main.c    **** 
  62:Src/main.c    **** /* USER CODE BEGIN PFP */
  63:Src/main.c    **** /* Private function prototypes -----------------------------------------------*/
  64:Src/main.c    **** 
  65:Src/main.c    **** /* USER CODE END PFP */
  66:Src/main.c    **** 
  67:Src/main.c    **** /* USER CODE BEGIN 0 */
  68:Src/main.c    **** 
  69:Src/main.c    **** /* USER CODE END 0 */
  70:Src/main.c    **** 
  71:Src/main.c    **** int main(void) {
  72:Src/main.c    **** 
  73:Src/main.c    ****     /* USER CODE BEGIN 1 */
  74:Src/main.c    **** 
  75:Src/main.c    ****     /* USER CODE END 1 */
  76:Src/main.c    **** 
  77:Src/main.c    ****     /* MCU Configuration----------------------------------------------------------*/
  78:Src/main.c    **** 
  79:Src/main.c    ****     /* Reset of all peripherals, Initializes the Flash interface and the Systick. */
  80:Src/main.c    ****     HAL_Init();
  81:Src/main.c    **** 
  82:Src/main.c    ****     /* USER CODE BEGIN Init */
  83:Src/main.c    **** 
  84:Src/main.c    ****     /* USER CODE END Init */
  85:Src/main.c    **** 
  86:Src/main.c    ****     /* Configure the system clock */
  87:Src/main.c    ****     SystemClock_Config();
ARM GAS  /tmp/ccDPUS3s.s 			page 3


  88:Src/main.c    **** 
  89:Src/main.c    ****     /* USER CODE BEGIN SysInit */
  90:Src/main.c    **** 
  91:Src/main.c    ****     /* USER CODE END SysInit */
  92:Src/main.c    **** 
  93:Src/main.c    ****     /* Initialize all configured peripherals */
  94:Src/main.c    ****     MX_GPIO_Init();
  95:Src/main.c    ****     MX_DMA_Init();
  96:Src/main.c    ****     MX_I2C1_Init();
  97:Src/main.c    ****     MX_TIM2_Init();
  98:Src/main.c    ****     MX_USART1_UART_Init();
  99:Src/main.c    ****     MX_TIM1_Init();
 100:Src/main.c    ****     MX_TIM16_Init();
 101:Src/main.c    ****     MX_USART2_UART_Init();
 102:Src/main.c    **** 
 103:Src/main.c    ****     /* USER CODE BEGIN 2 */
 104:Src/main.c    **** 
 105:Src/main.c    ****     // Timer starten
 106:Src/main.c    ****     HAL_TIM_Base_Start(&htim1);
 107:Src/main.c    ****     HAL_TIM_Base_Start(&htim2);
 108:Src/main.c    ****     HAL_TIM_Base_Start(&htim16);
 109:Src/main.c    **** 
 110:Src/main.c    ****     HAL_TIM_PWM_Start(&htim1,TIM_CHANNEL_1);
 111:Src/main.c    ****     HAL_TIM_PWM_Start(&htim1,TIM_CHANNEL_2);
 112:Src/main.c    ****     HAL_TIM_PWM_Start(&htim1,TIM_CHANNEL_3);
 113:Src/main.c    ****     HAL_TIM_PWM_Start(&htim2,TIM_CHANNEL_2);
 114:Src/main.c    ****     HAL_TIM_PWM_Start(&htim16,TIM_CHANNEL_1);
 115:Src/main.c    **** 
 116:Src/main.c    **** 
 117:Src/main.c    ****     /*
 118:Src/main.c    ****     //BNO-055 Konfigurieren
 119:Src/main.c    ****     uint8_t cmd[2];
 120:Src/main.c    ****     cmd[0] = 0x3B; //UNIT_SEL
 121:Src/main.c    ****     cmd[1] = 0 << 0 | 1 << 1 | 0 << 2
 122:Src/main.c    ****              | 0 << 4 | 0 << 7;
 123:Src/main.c    **** 
 124:Src/main.c    ****     HAL_I2C_Master_Transmit_DMA(&hi2c1, 0x28  << 1, cmd, sizeof(cmd));
 125:Src/main.c    **** 
 126:Src/main.c    ****     cmd[0] = 0x3D;  //OPR_MODE
 127:Src/main.c    ****     cmd[1] = 0b1011;
 128:Src/main.c    **** 
 129:Src/main.c    ****     HAL_I2C_Master_Transmit_DMA(&hi2c1, 0x28  << 1, cmd, sizeof(cmd));
 130:Src/main.c    **** 
 131:Src/main.c    ****     HAL_Delay(20);*/
 132:Src/main.c    ****     /* USER CODE END 2 */
 133:Src/main.c    **** 
 134:Src/main.c    ****     /* Infinite loop */
 135:Src/main.c    ****     /* USER CODE BEGIN WHILE */
 136:Src/main.c    ****     while (1) {
 137:Src/main.c    ****         /* USER CODE END WHILE */
 138:Src/main.c    **** 
 139:Src/main.c    ****         // UART mit DMA
 140:Src/main.c    ****         char data[] = "Test\n\r";
 141:Src/main.c    ****         HAL_UART_Transmit_DMA(&huart2, data, sizeof(data));
 142:Src/main.c    ****         HAL_Delay(100);
 143:Src/main.c    **** 
 144:Src/main.c    **** 
ARM GAS  /tmp/ccDPUS3s.s 			page 4


 145:Src/main.c    **** 
 146:Src/main.c    ****         /*
 147:Src/main.c    ****         // Daten von BNO-055
 148:Src/main.c    ****         uint8_t reg[1];
 149:Src/main.c    ****         reg[0] = 0x1A;
 150:Src/main.c    **** 
 151:Src/main.c    ****         HAL_I2C_Master_Transmit_DMA(&hi2c1, 0x28 << 1, reg, sizeof(reg));
 152:Src/main.c    **** 
 153:Src/main.c    ****         HAL_Delay(10);
 154:Src/main.c    ****         uint8_t recv[2];
 155:Src/main.c    **** 
 156:Src/main.c    ****         HAL_I2C_Master_Receive_DMA(&hi2c1, 0x28 << 1, recv, sizeof(recv));
 157:Src/main.c    **** 
 158:Src/main.c    ****         uint16_t heading = ((uint16_t)recv[1] << 8 | recv[0]) / 16;
 159:Src/main.c    **** 
 160:Src/main.c    ****         char data[10] = {' '};
 161:Src/main.c    ****         itoa(heading, data, 10);
 162:Src/main.c    ****         data[8] = '\r';
 163:Src/main.c    ****         data[9] = '\n';
 164:Src/main.c    ****         HAL_UART_Transmit_DMA(&huart2, data, sizeof(data));
 165:Src/main.c    ****         HAL_Delay(200);*/
 166:Src/main.c    **** 
 167:Src/main.c    **** 
 168:Src/main.c    **** 
 169:Src/main.c    ****         /* USER CODE BEGIN 3 */
 170:Src/main.c    **** 
 171:Src/main.c    ****     }
 172:Src/main.c    ****     /* USER CODE END 3 */
 173:Src/main.c    **** 
 174:Src/main.c    **** }
 175:Src/main.c    **** 
 176:Src/main.c    **** /** System Clock Configuration
 177:Src/main.c    **** */
 178:Src/main.c    **** void SystemClock_Config(void) {
 179:Src/main.c    **** 
 180:Src/main.c    ****     RCC_OscInitTypeDef RCC_OscInitStruct;
 181:Src/main.c    ****     RCC_ClkInitTypeDef RCC_ClkInitStruct;
 182:Src/main.c    ****     RCC_PeriphCLKInitTypeDef PeriphClkInit;
 183:Src/main.c    **** 
 184:Src/main.c    ****     /**Configure LSE Drive Capability 
 185:Src/main.c    ****     */
 186:Src/main.c    ****     __HAL_RCC_LSEDRIVE_CONFIG(RCC_LSEDRIVE_LOW);
 187:Src/main.c    **** 
 188:Src/main.c    ****     /**Initializes the CPU, AHB and APB busses clocks 
 189:Src/main.c    ****     */
 190:Src/main.c    ****     RCC_OscInitStruct.OscillatorType = RCC_OSCILLATORTYPE_LSE | RCC_OSCILLATORTYPE_MSI;
 191:Src/main.c    ****     RCC_OscInitStruct.LSEState = RCC_LSE_ON;
 192:Src/main.c    ****     RCC_OscInitStruct.MSIState = RCC_MSI_ON;
 193:Src/main.c    ****     RCC_OscInitStruct.MSICalibrationValue = 0;
 194:Src/main.c    ****     RCC_OscInitStruct.MSIClockRange = RCC_MSIRANGE_6;
 195:Src/main.c    ****     RCC_OscInitStruct.PLL.PLLState = RCC_PLL_ON;
 196:Src/main.c    ****     RCC_OscInitStruct.PLL.PLLSource = RCC_PLLSOURCE_MSI;
 197:Src/main.c    ****     RCC_OscInitStruct.PLL.PLLM = 1;
 198:Src/main.c    ****     RCC_OscInitStruct.PLL.PLLN = 16;
 199:Src/main.c    ****     RCC_OscInitStruct.PLL.PLLP = RCC_PLLP_DIV7;
 200:Src/main.c    ****     RCC_OscInitStruct.PLL.PLLQ = RCC_PLLQ_DIV2;
 201:Src/main.c    ****     RCC_OscInitStruct.PLL.PLLR = RCC_PLLR_DIV2;
ARM GAS  /tmp/ccDPUS3s.s 			page 5


 202:Src/main.c    ****     if (HAL_RCC_OscConfig(&RCC_OscInitStruct) != HAL_OK) {
 203:Src/main.c    ****         _Error_Handler(__FILE__, __LINE__);
 204:Src/main.c    ****     }
 205:Src/main.c    **** 
 206:Src/main.c    ****     /**Initializes the CPU, AHB and APB busses clocks 
 207:Src/main.c    ****     */
 208:Src/main.c    ****     RCC_ClkInitStruct.ClockType = RCC_CLOCKTYPE_HCLK | RCC_CLOCKTYPE_SYSCLK
 209:Src/main.c    ****                                   | RCC_CLOCKTYPE_PCLK1 | RCC_CLOCKTYPE_PCLK2;
 210:Src/main.c    ****     RCC_ClkInitStruct.SYSCLKSource = RCC_SYSCLKSOURCE_PLLCLK;
 211:Src/main.c    ****     RCC_ClkInitStruct.AHBCLKDivider = RCC_SYSCLK_DIV1;
 212:Src/main.c    ****     RCC_ClkInitStruct.APB1CLKDivider = RCC_HCLK_DIV1;
 213:Src/main.c    ****     RCC_ClkInitStruct.APB2CLKDivider = RCC_HCLK_DIV1;
 214:Src/main.c    **** 
 215:Src/main.c    ****     if (HAL_RCC_ClockConfig(&RCC_ClkInitStruct, FLASH_LATENCY_1) != HAL_OK) {
 216:Src/main.c    ****         _Error_Handler(__FILE__, __LINE__);
 217:Src/main.c    ****     }
 218:Src/main.c    **** 
 219:Src/main.c    ****     PeriphClkInit.PeriphClockSelection = RCC_PERIPHCLK_USART1 | RCC_PERIPHCLK_USART2
 220:Src/main.c    ****                                          | RCC_PERIPHCLK_I2C1;
 221:Src/main.c    ****     PeriphClkInit.Usart1ClockSelection = RCC_USART1CLKSOURCE_PCLK2;
 222:Src/main.c    ****     PeriphClkInit.Usart2ClockSelection = RCC_USART2CLKSOURCE_PCLK1;
 223:Src/main.c    ****     PeriphClkInit.I2c1ClockSelection = RCC_I2C1CLKSOURCE_PCLK1;
 224:Src/main.c    ****     if (HAL_RCCEx_PeriphCLKConfig(&PeriphClkInit) != HAL_OK) {
 225:Src/main.c    ****         _Error_Handler(__FILE__, __LINE__);
 226:Src/main.c    ****     }
 227:Src/main.c    **** 
 228:Src/main.c    ****     /**Configure the main internal regulator output voltage 
 229:Src/main.c    ****     */
 230:Src/main.c    ****     if (HAL_PWREx_ControlVoltageScaling(PWR_REGULATOR_VOLTAGE_SCALE1) != HAL_OK) {
 231:Src/main.c    ****         _Error_Handler(__FILE__, __LINE__);
 232:Src/main.c    ****     }
 233:Src/main.c    **** 
 234:Src/main.c    ****     /**Configure the Systick interrupt time 
 235:Src/main.c    ****     */
 236:Src/main.c    ****     HAL_SYSTICK_Config(HAL_RCC_GetHCLKFreq() / 1000);
 237:Src/main.c    **** 
 238:Src/main.c    ****     /**Configure the Systick 
 239:Src/main.c    ****     */
 240:Src/main.c    ****     HAL_SYSTICK_CLKSourceConfig(SYSTICK_CLKSOURCE_HCLK);
 241:Src/main.c    **** 
 242:Src/main.c    ****     /**Enable MSI Auto calibration 
 243:Src/main.c    ****     */
 244:Src/main.c    ****     HAL_RCCEx_EnableMSIPLLMode();
 245:Src/main.c    **** 
 246:Src/main.c    ****     /* SysTick_IRQn interrupt configuration */
 247:Src/main.c    ****     HAL_NVIC_SetPriority(SysTick_IRQn, 0, 0);
 248:Src/main.c    **** }
 249:Src/main.c    **** 
 250:Src/main.c    **** /* USER CODE BEGIN 4 */
 251:Src/main.c    **** 
 252:Src/main.c    **** /* USER CODE END 4 */
 253:Src/main.c    **** 
 254:Src/main.c    **** /**
 255:Src/main.c    ****   * @brief  This function is executed in case of error occurrence.
 256:Src/main.c    ****   * @param  None
 257:Src/main.c    ****   * @retval None
 258:Src/main.c    ****   */
ARM GAS  /tmp/ccDPUS3s.s 			page 6


 259:Src/main.c    **** void _Error_Handler(char *file, int line) {
  29              		.loc 1 259 0
  30              		.cfi_startproc
  31              		@ Volatile: function does not return.
  32              		@ args = 0, pretend = 0, frame = 0
  33              		@ frame_needed = 0, uses_anonymous_args = 0
  34              		@ link register save eliminated.
  35              	.LVL0:
  36              	.L2:
 260:Src/main.c    ****     /* USER CODE BEGIN Error_Handler_Debug */
 261:Src/main.c    ****     /* User can add his own implementation to report the HAL error return state */
 262:Src/main.c    ****     while (1) {
 263:Src/main.c    ****     }
  37              		.loc 1 263 0 discriminator 1
  38 0000 FEE7     		b	.L2
  39              		.cfi_endproc
  40              	.LFE127:
  42 0002 00BF     		.section	.text.SystemClock_Config,"ax",%progbits
  43              		.align	2
  44              		.global	SystemClock_Config
  45              		.thumb
  46              		.thumb_func
  48              	SystemClock_Config:
  49              	.LFB126:
 178:Src/main.c    **** 
  50              		.loc 1 178 0
  51              		.cfi_startproc
  52              		@ args = 0, pretend = 0, frame = 176
  53              		@ frame_needed = 0, uses_anonymous_args = 0
  54 0000 00B5     		push	{lr}
  55              	.LCFI0:
  56              		.cfi_def_cfa_offset 4
  57              		.cfi_offset 14, -4
  58 0002 ADB0     		sub	sp, sp, #180
  59              	.LCFI1:
  60              		.cfi_def_cfa_offset 184
 186:Src/main.c    **** 
  61              		.loc 1 186 0
  62 0004 2F4A     		ldr	r2, .L9
  63 0006 D2F89030 		ldr	r3, [r2, #144]
  64 000a 23F01803 		bic	r3, r3, #24
  65 000e C2F89030 		str	r3, [r2, #144]
 190:Src/main.c    ****     RCC_OscInitStruct.LSEState = RCC_LSE_ON;
  66              		.loc 1 190 0
  67 0012 1423     		movs	r3, #20
  68 0014 1B93     		str	r3, [sp, #108]
 191:Src/main.c    ****     RCC_OscInitStruct.MSIState = RCC_MSI_ON;
  69              		.loc 1 191 0
  70 0016 0123     		movs	r3, #1
  71 0018 1D93     		str	r3, [sp, #116]
 192:Src/main.c    ****     RCC_OscInitStruct.MSICalibrationValue = 0;
  72              		.loc 1 192 0
  73 001a 2193     		str	r3, [sp, #132]
 193:Src/main.c    ****     RCC_OscInitStruct.MSIClockRange = RCC_MSIRANGE_6;
  74              		.loc 1 193 0
  75 001c 0022     		movs	r2, #0
  76 001e 2292     		str	r2, [sp, #136]
ARM GAS  /tmp/ccDPUS3s.s 			page 7


 194:Src/main.c    ****     RCC_OscInitStruct.PLL.PLLState = RCC_PLL_ON;
  77              		.loc 1 194 0
  78 0020 6022     		movs	r2, #96
  79 0022 2392     		str	r2, [sp, #140]
 195:Src/main.c    ****     RCC_OscInitStruct.PLL.PLLSource = RCC_PLLSOURCE_MSI;
  80              		.loc 1 195 0
  81 0024 0222     		movs	r2, #2
  82 0026 2592     		str	r2, [sp, #148]
 196:Src/main.c    ****     RCC_OscInitStruct.PLL.PLLM = 1;
  83              		.loc 1 196 0
  84 0028 2693     		str	r3, [sp, #152]
 197:Src/main.c    ****     RCC_OscInitStruct.PLL.PLLN = 16;
  85              		.loc 1 197 0
  86 002a 2793     		str	r3, [sp, #156]
 198:Src/main.c    ****     RCC_OscInitStruct.PLL.PLLP = RCC_PLLP_DIV7;
  87              		.loc 1 198 0
  88 002c 1023     		movs	r3, #16
  89 002e 2893     		str	r3, [sp, #160]
 199:Src/main.c    ****     RCC_OscInitStruct.PLL.PLLQ = RCC_PLLQ_DIV2;
  90              		.loc 1 199 0
  91 0030 0723     		movs	r3, #7
  92 0032 2993     		str	r3, [sp, #164]
 200:Src/main.c    ****     RCC_OscInitStruct.PLL.PLLR = RCC_PLLR_DIV2;
  93              		.loc 1 200 0
  94 0034 2A92     		str	r2, [sp, #168]
 201:Src/main.c    ****     if (HAL_RCC_OscConfig(&RCC_OscInitStruct) != HAL_OK) {
  95              		.loc 1 201 0
  96 0036 2B92     		str	r2, [sp, #172]
 202:Src/main.c    ****         _Error_Handler(__FILE__, __LINE__);
  97              		.loc 1 202 0
  98 0038 1BA8     		add	r0, sp, #108
  99 003a FFF7FEFF 		bl	HAL_RCC_OscConfig
 100              	.LVL1:
 101 003e 18B1     		cbz	r0, .L4
 203:Src/main.c    ****     }
 102              		.loc 1 203 0
 103 0040 2148     		ldr	r0, .L9+4
 104 0042 CB21     		movs	r1, #203
 105 0044 FFF7FEFF 		bl	_Error_Handler
 106              	.LVL2:
 107              	.L4:
 208:Src/main.c    ****                                   | RCC_CLOCKTYPE_PCLK1 | RCC_CLOCKTYPE_PCLK2;
 108              		.loc 1 208 0
 109 0048 0F23     		movs	r3, #15
 110 004a 1693     		str	r3, [sp, #88]
 210:Src/main.c    ****     RCC_ClkInitStruct.AHBCLKDivider = RCC_SYSCLK_DIV1;
 111              		.loc 1 210 0
 112 004c 0323     		movs	r3, #3
 113 004e 1793     		str	r3, [sp, #92]
 211:Src/main.c    ****     RCC_ClkInitStruct.APB1CLKDivider = RCC_HCLK_DIV1;
 114              		.loc 1 211 0
 115 0050 0023     		movs	r3, #0
 116 0052 1893     		str	r3, [sp, #96]
 212:Src/main.c    ****     RCC_ClkInitStruct.APB2CLKDivider = RCC_HCLK_DIV1;
 117              		.loc 1 212 0
 118 0054 1993     		str	r3, [sp, #100]
 213:Src/main.c    **** 
ARM GAS  /tmp/ccDPUS3s.s 			page 8


 119              		.loc 1 213 0
 120 0056 1A93     		str	r3, [sp, #104]
 215:Src/main.c    ****         _Error_Handler(__FILE__, __LINE__);
 121              		.loc 1 215 0
 122 0058 16A8     		add	r0, sp, #88
 123 005a 0121     		movs	r1, #1
 124 005c FFF7FEFF 		bl	HAL_RCC_ClockConfig
 125              	.LVL3:
 126 0060 18B1     		cbz	r0, .L5
 216:Src/main.c    ****     }
 127              		.loc 1 216 0
 128 0062 1948     		ldr	r0, .L9+4
 129 0064 D821     		movs	r1, #216
 130 0066 FFF7FEFF 		bl	_Error_Handler
 131              	.LVL4:
 132              	.L5:
 219:Src/main.c    ****                                          | RCC_PERIPHCLK_I2C1;
 133              		.loc 1 219 0
 134 006a 4323     		movs	r3, #67
 135 006c 0193     		str	r3, [sp, #4]
 221:Src/main.c    ****     PeriphClkInit.Usart2ClockSelection = RCC_USART2CLKSOURCE_PCLK1;
 136              		.loc 1 221 0
 137 006e 0023     		movs	r3, #0
 138 0070 0993     		str	r3, [sp, #36]
 222:Src/main.c    ****     PeriphClkInit.I2c1ClockSelection = RCC_I2C1CLKSOURCE_PCLK1;
 139              		.loc 1 222 0
 140 0072 0A93     		str	r3, [sp, #40]
 223:Src/main.c    ****     if (HAL_RCCEx_PeriphCLKConfig(&PeriphClkInit) != HAL_OK) {
 141              		.loc 1 223 0
 142 0074 0C93     		str	r3, [sp, #48]
 224:Src/main.c    ****         _Error_Handler(__FILE__, __LINE__);
 143              		.loc 1 224 0
 144 0076 01A8     		add	r0, sp, #4
 145 0078 FFF7FEFF 		bl	HAL_RCCEx_PeriphCLKConfig
 146              	.LVL5:
 147 007c 18B1     		cbz	r0, .L6
 225:Src/main.c    ****     }
 148              		.loc 1 225 0
 149 007e 1248     		ldr	r0, .L9+4
 150 0080 E121     		movs	r1, #225
 151 0082 FFF7FEFF 		bl	_Error_Handler
 152              	.LVL6:
 153              	.L6:
 230:Src/main.c    ****         _Error_Handler(__FILE__, __LINE__);
 154              		.loc 1 230 0
 155 0086 4FF40070 		mov	r0, #512
 156 008a FFF7FEFF 		bl	HAL_PWREx_ControlVoltageScaling
 157              	.LVL7:
 158 008e 18B1     		cbz	r0, .L7
 231:Src/main.c    ****     }
 159              		.loc 1 231 0
 160 0090 0D48     		ldr	r0, .L9+4
 161 0092 E721     		movs	r1, #231
 162 0094 FFF7FEFF 		bl	_Error_Handler
 163              	.LVL8:
 164              	.L7:
 236:Src/main.c    **** 
ARM GAS  /tmp/ccDPUS3s.s 			page 9


 165              		.loc 1 236 0
 166 0098 FFF7FEFF 		bl	HAL_RCC_GetHCLKFreq
 167              	.LVL9:
 168 009c 0B4B     		ldr	r3, .L9+8
 169 009e A3FB0030 		umull	r3, r0, r3, r0
 170 00a2 8009     		lsrs	r0, r0, #6
 171 00a4 FFF7FEFF 		bl	HAL_SYSTICK_Config
 172              	.LVL10:
 240:Src/main.c    **** 
 173              		.loc 1 240 0
 174 00a8 0420     		movs	r0, #4
 175 00aa FFF7FEFF 		bl	HAL_SYSTICK_CLKSourceConfig
 176              	.LVL11:
 244:Src/main.c    **** 
 177              		.loc 1 244 0
 178 00ae FFF7FEFF 		bl	HAL_RCCEx_EnableMSIPLLMode
 179              	.LVL12:
 247:Src/main.c    **** }
 180              		.loc 1 247 0
 181 00b2 4FF0FF30 		mov	r0, #-1
 182 00b6 0021     		movs	r1, #0
 183 00b8 0A46     		mov	r2, r1
 184 00ba FFF7FEFF 		bl	HAL_NVIC_SetPriority
 185              	.LVL13:
 248:Src/main.c    **** 
 186              		.loc 1 248 0
 187 00be 2DB0     		add	sp, sp, #180
 188              	.LCFI2:
 189              		.cfi_def_cfa_offset 4
 190              		@ sp needed
 191 00c0 5DF804FB 		ldr	pc, [sp], #4
 192              	.L10:
 193              		.align	2
 194              	.L9:
 195 00c4 00100240 		.word	1073876992
 196 00c8 00000000 		.word	.LC0
 197 00cc D34D6210 		.word	274877907
 198              		.cfi_endproc
 199              	.LFE126:
 201              		.section	.text.main,"ax",%progbits
 202              		.align	2
 203              		.global	main
 204              		.thumb
 205              		.thumb_func
 207              	main:
 208              	.LFB125:
  71:Src/main.c    **** 
 209              		.loc 1 71 0
 210              		.cfi_startproc
 211              		@ args = 0, pretend = 0, frame = 8
 212              		@ frame_needed = 0, uses_anonymous_args = 0
 213 0000 70B5     		push	{r4, r5, r6, lr}
 214              	.LCFI3:
 215              		.cfi_def_cfa_offset 16
 216              		.cfi_offset 4, -16
 217              		.cfi_offset 5, -12
 218              		.cfi_offset 6, -8
ARM GAS  /tmp/ccDPUS3s.s 			page 10


 219              		.cfi_offset 14, -4
 220 0002 82B0     		sub	sp, sp, #8
 221              	.LCFI4:
 222              		.cfi_def_cfa_offset 24
  80:Src/main.c    **** 
 223              		.loc 1 80 0
 224 0004 FFF7FEFF 		bl	HAL_Init
 225              	.LVL14:
  87:Src/main.c    **** 
 226              		.loc 1 87 0
 227 0008 FFF7FEFF 		bl	SystemClock_Config
 228              	.LVL15:
  94:Src/main.c    ****     MX_DMA_Init();
 229              		.loc 1 94 0
 230 000c FFF7FEFF 		bl	MX_GPIO_Init
 231              	.LVL16:
  95:Src/main.c    ****     MX_I2C1_Init();
 232              		.loc 1 95 0
 233 0010 FFF7FEFF 		bl	MX_DMA_Init
 234              	.LVL17:
  96:Src/main.c    ****     MX_TIM2_Init();
 235              		.loc 1 96 0
 236 0014 FFF7FEFF 		bl	MX_I2C1_Init
 237              	.LVL18:
  97:Src/main.c    ****     MX_USART1_UART_Init();
 238              		.loc 1 97 0
 239 0018 FFF7FEFF 		bl	MX_TIM2_Init
 240              	.LVL19:
  98:Src/main.c    ****     MX_TIM1_Init();
 241              		.loc 1 98 0
 242 001c FFF7FEFF 		bl	MX_USART1_UART_Init
 243              	.LVL20:
  99:Src/main.c    ****     MX_TIM16_Init();
 244              		.loc 1 99 0
 245 0020 FFF7FEFF 		bl	MX_TIM1_Init
 246              	.LVL21:
 100:Src/main.c    ****     MX_USART2_UART_Init();
 247              		.loc 1 100 0
 248 0024 FFF7FEFF 		bl	MX_TIM16_Init
 249              	.LVL22:
 101:Src/main.c    **** 
 250              		.loc 1 101 0
 251 0028 FFF7FEFF 		bl	MX_USART2_UART_Init
 252              	.LVL23:
 106:Src/main.c    ****     HAL_TIM_Base_Start(&htim2);
 253              		.loc 1 106 0
 254 002c 184C     		ldr	r4, .L14
 255 002e 2046     		mov	r0, r4
 256 0030 FFF7FEFF 		bl	HAL_TIM_Base_Start
 257              	.LVL24:
 107:Src/main.c    ****     HAL_TIM_Base_Start(&htim16);
 258              		.loc 1 107 0
 259 0034 174E     		ldr	r6, .L14+4
 260 0036 3046     		mov	r0, r6
 261 0038 FFF7FEFF 		bl	HAL_TIM_Base_Start
 262              	.LVL25:
 108:Src/main.c    **** 
ARM GAS  /tmp/ccDPUS3s.s 			page 11


 263              		.loc 1 108 0
 264 003c 164D     		ldr	r5, .L14+8
 265 003e 2846     		mov	r0, r5
 266 0040 FFF7FEFF 		bl	HAL_TIM_Base_Start
 267              	.LVL26:
 110:Src/main.c    ****     HAL_TIM_PWM_Start(&htim1,TIM_CHANNEL_2);
 268              		.loc 1 110 0
 269 0044 2046     		mov	r0, r4
 270 0046 0021     		movs	r1, #0
 271 0048 FFF7FEFF 		bl	HAL_TIM_PWM_Start
 272              	.LVL27:
 111:Src/main.c    ****     HAL_TIM_PWM_Start(&htim1,TIM_CHANNEL_3);
 273              		.loc 1 111 0
 274 004c 2046     		mov	r0, r4
 275 004e 0421     		movs	r1, #4
 276 0050 FFF7FEFF 		bl	HAL_TIM_PWM_Start
 277              	.LVL28:
 112:Src/main.c    ****     HAL_TIM_PWM_Start(&htim2,TIM_CHANNEL_2);
 278              		.loc 1 112 0
 279 0054 2046     		mov	r0, r4
 280 0056 0821     		movs	r1, #8
 281 0058 FFF7FEFF 		bl	HAL_TIM_PWM_Start
 282              	.LVL29:
 113:Src/main.c    ****     HAL_TIM_PWM_Start(&htim16,TIM_CHANNEL_1);
 283              		.loc 1 113 0
 284 005c 3046     		mov	r0, r6
 285 005e 0421     		movs	r1, #4
 286 0060 FFF7FEFF 		bl	HAL_TIM_PWM_Start
 287              	.LVL30:
 114:Src/main.c    **** 
 288              		.loc 1 114 0
 289 0064 2846     		mov	r0, r5
 290 0066 0021     		movs	r1, #0
 291 0068 FFF7FEFF 		bl	HAL_TIM_PWM_Start
 292              	.LVL31:
 293              	.L12:
 294              	.LBB2:
 140:Src/main.c    ****         HAL_UART_Transmit_DMA(&huart2, data, sizeof(data));
 295              		.loc 1 140 0 discriminator 1
 296 006c 0B4B     		ldr	r3, .L14+12
 297 006e 93E80300 		ldmia	r3, {r0, r1}
 298 0072 0090     		str	r0, [sp]
 299 0074 ADF80410 		strh	r1, [sp, #4]	@ movhi
 300 0078 090C     		lsrs	r1, r1, #16
 301 007a 8DF80610 		strb	r1, [sp, #6]
 141:Src/main.c    ****         HAL_Delay(100);
 302              		.loc 1 141 0 discriminator 1
 303 007e 0848     		ldr	r0, .L14+16
 304 0080 6946     		mov	r1, sp
 305 0082 0722     		movs	r2, #7
 306 0084 FFF7FEFF 		bl	HAL_UART_Transmit_DMA
 307              	.LVL32:
 142:Src/main.c    **** 
 308              		.loc 1 142 0 discriminator 1
 309 0088 6420     		movs	r0, #100
 310 008a FFF7FEFF 		bl	HAL_Delay
 311              	.LVL33:
ARM GAS  /tmp/ccDPUS3s.s 			page 12


 312              	.LBE2:
 171:Src/main.c    ****     /* USER CODE END 3 */
 313              		.loc 1 171 0 discriminator 1
 314 008e EDE7     		b	.L12
 315              	.L15:
 316              		.align	2
 317              	.L14:
 318 0090 00000000 		.word	htim1
 319 0094 00000000 		.word	htim2
 320 0098 00000000 		.word	htim16
 321 009c 0C000000 		.word	.LC1
 322 00a0 00000000 		.word	huart2
 323              		.cfi_endproc
 324              	.LFE125:
 326              		.section	.rodata.str1.4,"aMS",%progbits,1
 327              		.align	2
 328              	.LC0:
 329 0000 5372632F 		.ascii	"Src/main.c\000"
 329      6D61696E 
 329      2E6300
 330 000b 00       		.space	1
 331              	.LC1:
 332 000c 54657374 		.ascii	"Test\012\015\000"
 332      0A0D00
 333              		.text
 334              	.Letext0:
 335              		.file 2 "Drivers/CMSIS/Device/ST/STM32L4xx/Include/stm32l432xx.h"
 336              		.file 3 "/usr/include/newlib/machine/_default_types.h"
 337              		.file 4 "/usr/include/newlib/sys/_stdint.h"
 338              		.file 5 "Drivers/STM32L4xx_HAL_Driver/Inc/stm32l4xx_hal_def.h"
 339              		.file 6 "Drivers/STM32L4xx_HAL_Driver/Inc/stm32l4xx_hal_rcc.h"
 340              		.file 7 "Drivers/STM32L4xx_HAL_Driver/Inc/stm32l4xx_hal_rcc_ex.h"
 341              		.file 8 "Drivers/STM32L4xx_HAL_Driver/Inc/stm32l4xx_hal_dma.h"
 342              		.file 9 "Drivers/STM32L4xx_HAL_Driver/Inc/stm32l4xx_hal_tim.h"
 343              		.file 10 "Drivers/STM32L4xx_HAL_Driver/Inc/stm32l4xx_hal_uart.h"
 344              		.file 11 "Drivers/CMSIS/Include/core_cm4.h"
 345              		.file 12 "Inc/tim.h"
 346              		.file 13 "Inc/usart.h"
 347              		.file 14 "Drivers/STM32L4xx_HAL_Driver/Inc/stm32l4xx_hal_pwr_ex.h"
 348              		.file 15 "Drivers/STM32L4xx_HAL_Driver/Inc/stm32l4xx_hal_cortex.h"
 349              		.file 16 "Drivers/STM32L4xx_HAL_Driver/Inc/stm32l4xx_hal.h"
 350              		.file 17 "Inc/gpio.h"
 351              		.file 18 "Inc/dma.h"
 352              		.file 19 "Inc/i2c.h"
ARM GAS  /tmp/ccDPUS3s.s 			page 13


DEFINED SYMBOLS
                            *ABS*:0000000000000000 main.c
     /tmp/ccDPUS3s.s:21     .text._Error_Handler:0000000000000000 $t
     /tmp/ccDPUS3s.s:26     .text._Error_Handler:0000000000000000 _Error_Handler
     /tmp/ccDPUS3s.s:43     .text.SystemClock_Config:0000000000000000 $t
     /tmp/ccDPUS3s.s:48     .text.SystemClock_Config:0000000000000000 SystemClock_Config
     /tmp/ccDPUS3s.s:195    .text.SystemClock_Config:00000000000000c4 $d
     /tmp/ccDPUS3s.s:202    .text.main:0000000000000000 $t
     /tmp/ccDPUS3s.s:207    .text.main:0000000000000000 main
     /tmp/ccDPUS3s.s:318    .text.main:0000000000000090 $d
     /tmp/ccDPUS3s.s:327    .rodata.str1.4:0000000000000000 $d
                     .debug_frame:0000000000000010 $d

UNDEFINED SYMBOLS
HAL_RCC_OscConfig
HAL_RCC_ClockConfig
HAL_RCCEx_PeriphCLKConfig
HAL_PWREx_ControlVoltageScaling
HAL_RCC_GetHCLKFreq
HAL_SYSTICK_Config
HAL_SYSTICK_CLKSourceConfig
HAL_RCCEx_EnableMSIPLLMode
HAL_NVIC_SetPriority
HAL_Init
MX_GPIO_Init
MX_DMA_Init
MX_I2C1_Init
MX_TIM2_Init
MX_USART1_UART_Init
MX_TIM1_Init
MX_TIM16_Init
MX_USART2_UART_Init
HAL_TIM_Base_Start
HAL_TIM_PWM_Start
HAL_UART_Transmit_DMA
HAL_Delay
htim1
htim2
htim16
huart2
