ARM GAS  /tmp/ccpYhBeZ.s 			page 1


   1              		.syntax unified
   2              		.cpu cortex-m4
   3              		.eabi_attribute 27, 1
   4              		.eabi_attribute 28, 1
   5              		.fpu fpv4-sp-d16
   6              		.eabi_attribute 20, 1
   7              		.eabi_attribute 21, 1
   8              		.eabi_attribute 23, 3
   9              		.eabi_attribute 24, 1
  10              		.eabi_attribute 25, 1
  11              		.eabi_attribute 26, 1
  12              		.eabi_attribute 30, 1
  13              		.eabi_attribute 34, 1
  14              		.eabi_attribute 18, 4
  15              		.thumb
  16              		.file	"stm32l4xx_hal_uart_ex.c"
  17              		.text
  18              	.Ltext0:
  19              		.cfi_sections	.debug_frame
  20              		.section	.text.UARTEx_Wakeup_AddressConfig,"ax",%progbits
  21              		.align	2
  22              		.thumb
  23              		.thumb_func
  25              	UARTEx_Wakeup_AddressConfig:
  26              	.LFB131:
  27              		.file 1 "Drivers/STM32L4xx_HAL_Driver/Src/stm32l4xx_hal_uart_ex.c"
   1:Drivers/STM32L4xx_HAL_Driver/Src/stm32l4xx_hal_uart_ex.c **** /**
   2:Drivers/STM32L4xx_HAL_Driver/Src/stm32l4xx_hal_uart_ex.c ****   ******************************************************************************
   3:Drivers/STM32L4xx_HAL_Driver/Src/stm32l4xx_hal_uart_ex.c ****   * @file    stm32l4xx_hal_uart_ex.c
   4:Drivers/STM32L4xx_HAL_Driver/Src/stm32l4xx_hal_uart_ex.c ****   * @author  MCD Application Team
   5:Drivers/STM32L4xx_HAL_Driver/Src/stm32l4xx_hal_uart_ex.c ****   * @brief   Extended UART HAL module driver.
   6:Drivers/STM32L4xx_HAL_Driver/Src/stm32l4xx_hal_uart_ex.c ****   *          This file provides firmware functions to manage the following extended
   7:Drivers/STM32L4xx_HAL_Driver/Src/stm32l4xx_hal_uart_ex.c ****   *          functionalities of the Universal Asynchronous Receiver Transmitter Peripheral (UART).
   8:Drivers/STM32L4xx_HAL_Driver/Src/stm32l4xx_hal_uart_ex.c ****   *           + Initialization and de-initialization functions
   9:Drivers/STM32L4xx_HAL_Driver/Src/stm32l4xx_hal_uart_ex.c ****   *           + Peripheral Control functions
  10:Drivers/STM32L4xx_HAL_Driver/Src/stm32l4xx_hal_uart_ex.c ****   *
  11:Drivers/STM32L4xx_HAL_Driver/Src/stm32l4xx_hal_uart_ex.c ****   *
  12:Drivers/STM32L4xx_HAL_Driver/Src/stm32l4xx_hal_uart_ex.c ****   @verbatim
  13:Drivers/STM32L4xx_HAL_Driver/Src/stm32l4xx_hal_uart_ex.c ****   ==============================================================================
  14:Drivers/STM32L4xx_HAL_Driver/Src/stm32l4xx_hal_uart_ex.c ****                ##### UART peripheral extended features  #####
  15:Drivers/STM32L4xx_HAL_Driver/Src/stm32l4xx_hal_uart_ex.c ****   ==============================================================================
  16:Drivers/STM32L4xx_HAL_Driver/Src/stm32l4xx_hal_uart_ex.c **** 
  17:Drivers/STM32L4xx_HAL_Driver/Src/stm32l4xx_hal_uart_ex.c ****     (#) Declare a UART_HandleTypeDef handle structure.
  18:Drivers/STM32L4xx_HAL_Driver/Src/stm32l4xx_hal_uart_ex.c **** 
  19:Drivers/STM32L4xx_HAL_Driver/Src/stm32l4xx_hal_uart_ex.c ****     (#) For the UART RS485 Driver Enable mode, initialize the UART registers
  20:Drivers/STM32L4xx_HAL_Driver/Src/stm32l4xx_hal_uart_ex.c ****         by calling the HAL_RS485Ex_Init() API.
  21:Drivers/STM32L4xx_HAL_Driver/Src/stm32l4xx_hal_uart_ex.c **** 
  22:Drivers/STM32L4xx_HAL_Driver/Src/stm32l4xx_hal_uart_ex.c ****     (#) FIFO mode enabling/disabling and RX/TX FIFO threshold programming.
  23:Drivers/STM32L4xx_HAL_Driver/Src/stm32l4xx_hal_uart_ex.c **** 
  24:Drivers/STM32L4xx_HAL_Driver/Src/stm32l4xx_hal_uart_ex.c ****         -@- When USART operates in FIFO mode, FIFO mode must be enabled prior 
  25:Drivers/STM32L4xx_HAL_Driver/Src/stm32l4xx_hal_uart_ex.c ****             starting RX/TX transfers. Also RX/TX FIFO thresholds must be 
  26:Drivers/STM32L4xx_HAL_Driver/Src/stm32l4xx_hal_uart_ex.c ****             configured prior starting RX/TX transfers.
  27:Drivers/STM32L4xx_HAL_Driver/Src/stm32l4xx_hal_uart_ex.c **** 
  28:Drivers/STM32L4xx_HAL_Driver/Src/stm32l4xx_hal_uart_ex.c ****     (#) Slave mode enabling/disabling and NSS pin configuration.
  29:Drivers/STM32L4xx_HAL_Driver/Src/stm32l4xx_hal_uart_ex.c **** 
  30:Drivers/STM32L4xx_HAL_Driver/Src/stm32l4xx_hal_uart_ex.c ****         -@- When USART operates in Slave mode, Slave mode must be enabled prior 
  31:Drivers/STM32L4xx_HAL_Driver/Src/stm32l4xx_hal_uart_ex.c ****             starting RX/TX transfers.
ARM GAS  /tmp/ccpYhBeZ.s 			page 2


  32:Drivers/STM32L4xx_HAL_Driver/Src/stm32l4xx_hal_uart_ex.c **** 
  33:Drivers/STM32L4xx_HAL_Driver/Src/stm32l4xx_hal_uart_ex.c ****   @endverbatim
  34:Drivers/STM32L4xx_HAL_Driver/Src/stm32l4xx_hal_uart_ex.c ****   ******************************************************************************
  35:Drivers/STM32L4xx_HAL_Driver/Src/stm32l4xx_hal_uart_ex.c ****   * @attention
  36:Drivers/STM32L4xx_HAL_Driver/Src/stm32l4xx_hal_uart_ex.c ****   *
  37:Drivers/STM32L4xx_HAL_Driver/Src/stm32l4xx_hal_uart_ex.c ****   * <h2><center>&copy; COPYRIGHT(c) 2017 STMicroelectronics</center></h2>
  38:Drivers/STM32L4xx_HAL_Driver/Src/stm32l4xx_hal_uart_ex.c ****   *
  39:Drivers/STM32L4xx_HAL_Driver/Src/stm32l4xx_hal_uart_ex.c ****   * Redistribution and use in source and binary forms, with or without modification,
  40:Drivers/STM32L4xx_HAL_Driver/Src/stm32l4xx_hal_uart_ex.c ****   * are permitted provided that the following conditions are met:
  41:Drivers/STM32L4xx_HAL_Driver/Src/stm32l4xx_hal_uart_ex.c ****   *   1. Redistributions of source code must retain the above copyright notice,
  42:Drivers/STM32L4xx_HAL_Driver/Src/stm32l4xx_hal_uart_ex.c ****   *      this list of conditions and the following disclaimer.
  43:Drivers/STM32L4xx_HAL_Driver/Src/stm32l4xx_hal_uart_ex.c ****   *   2. Redistributions in binary form must reproduce the above copyright notice,
  44:Drivers/STM32L4xx_HAL_Driver/Src/stm32l4xx_hal_uart_ex.c ****   *      this list of conditions and the following disclaimer in the documentation
  45:Drivers/STM32L4xx_HAL_Driver/Src/stm32l4xx_hal_uart_ex.c ****   *      and/or other materials provided with the distribution.
  46:Drivers/STM32L4xx_HAL_Driver/Src/stm32l4xx_hal_uart_ex.c ****   *   3. Neither the name of STMicroelectronics nor the names of its contributors
  47:Drivers/STM32L4xx_HAL_Driver/Src/stm32l4xx_hal_uart_ex.c ****   *      may be used to endorse or promote products derived from this software
  48:Drivers/STM32L4xx_HAL_Driver/Src/stm32l4xx_hal_uart_ex.c ****   *      without specific prior written permission.
  49:Drivers/STM32L4xx_HAL_Driver/Src/stm32l4xx_hal_uart_ex.c ****   *
  50:Drivers/STM32L4xx_HAL_Driver/Src/stm32l4xx_hal_uart_ex.c ****   * THIS SOFTWARE IS PROVIDED BY THE COPYRIGHT HOLDERS AND CONTRIBUTORS "AS IS"
  51:Drivers/STM32L4xx_HAL_Driver/Src/stm32l4xx_hal_uart_ex.c ****   * AND ANY EXPRESS OR IMPLIED WARRANTIES, INCLUDING, BUT NOT LIMITED TO, THE
  52:Drivers/STM32L4xx_HAL_Driver/Src/stm32l4xx_hal_uart_ex.c ****   * IMPLIED WARRANTIES OF MERCHANTABILITY AND FITNESS FOR A PARTICULAR PURPOSE ARE
  53:Drivers/STM32L4xx_HAL_Driver/Src/stm32l4xx_hal_uart_ex.c ****   * DISCLAIMED. IN NO EVENT SHALL THE COPYRIGHT HOLDER OR CONTRIBUTORS BE LIABLE
  54:Drivers/STM32L4xx_HAL_Driver/Src/stm32l4xx_hal_uart_ex.c ****   * FOR ANY DIRECT, INDIRECT, INCIDENTAL, SPECIAL, EXEMPLARY, OR CONSEQUENTIAL
  55:Drivers/STM32L4xx_HAL_Driver/Src/stm32l4xx_hal_uart_ex.c ****   * DAMAGES (INCLUDING, BUT NOT LIMITED TO, PROCUREMENT OF SUBSTITUTE GOODS OR
  56:Drivers/STM32L4xx_HAL_Driver/Src/stm32l4xx_hal_uart_ex.c ****   * SERVICES; LOSS OF USE, DATA, OR PROFITS; OR BUSINESS INTERRUPTION) HOWEVER
  57:Drivers/STM32L4xx_HAL_Driver/Src/stm32l4xx_hal_uart_ex.c ****   * CAUSED AND ON ANY THEORY OF LIABILITY, WHETHER IN CONTRACT, STRICT LIABILITY,
  58:Drivers/STM32L4xx_HAL_Driver/Src/stm32l4xx_hal_uart_ex.c ****   * OR TORT (INCLUDING NEGLIGENCE OR OTHERWISE) ARISING IN ANY WAY OUT OF THE USE
  59:Drivers/STM32L4xx_HAL_Driver/Src/stm32l4xx_hal_uart_ex.c ****   * OF THIS SOFTWARE, EVEN IF ADVISED OF THE POSSIBILITY OF SUCH DAMAGE.
  60:Drivers/STM32L4xx_HAL_Driver/Src/stm32l4xx_hal_uart_ex.c ****   *
  61:Drivers/STM32L4xx_HAL_Driver/Src/stm32l4xx_hal_uart_ex.c ****   ******************************************************************************
  62:Drivers/STM32L4xx_HAL_Driver/Src/stm32l4xx_hal_uart_ex.c ****   */
  63:Drivers/STM32L4xx_HAL_Driver/Src/stm32l4xx_hal_uart_ex.c **** 
  64:Drivers/STM32L4xx_HAL_Driver/Src/stm32l4xx_hal_uart_ex.c **** /* Includes ------------------------------------------------------------------*/
  65:Drivers/STM32L4xx_HAL_Driver/Src/stm32l4xx_hal_uart_ex.c **** #include "stm32l4xx_hal.h"
  66:Drivers/STM32L4xx_HAL_Driver/Src/stm32l4xx_hal_uart_ex.c **** 
  67:Drivers/STM32L4xx_HAL_Driver/Src/stm32l4xx_hal_uart_ex.c **** /** @addtogroup STM32L4xx_HAL_Driver
  68:Drivers/STM32L4xx_HAL_Driver/Src/stm32l4xx_hal_uart_ex.c ****   * @{
  69:Drivers/STM32L4xx_HAL_Driver/Src/stm32l4xx_hal_uart_ex.c ****   */
  70:Drivers/STM32L4xx_HAL_Driver/Src/stm32l4xx_hal_uart_ex.c **** 
  71:Drivers/STM32L4xx_HAL_Driver/Src/stm32l4xx_hal_uart_ex.c **** /** @defgroup UARTEx UARTEx
  72:Drivers/STM32L4xx_HAL_Driver/Src/stm32l4xx_hal_uart_ex.c ****   * @brief UART Extended HAL module driver
  73:Drivers/STM32L4xx_HAL_Driver/Src/stm32l4xx_hal_uart_ex.c ****   * @{
  74:Drivers/STM32L4xx_HAL_Driver/Src/stm32l4xx_hal_uart_ex.c ****   */
  75:Drivers/STM32L4xx_HAL_Driver/Src/stm32l4xx_hal_uart_ex.c **** 
  76:Drivers/STM32L4xx_HAL_Driver/Src/stm32l4xx_hal_uart_ex.c **** #ifdef HAL_UART_MODULE_ENABLED
  77:Drivers/STM32L4xx_HAL_Driver/Src/stm32l4xx_hal_uart_ex.c **** 
  78:Drivers/STM32L4xx_HAL_Driver/Src/stm32l4xx_hal_uart_ex.c **** /* Private typedef -----------------------------------------------------------*/
  79:Drivers/STM32L4xx_HAL_Driver/Src/stm32l4xx_hal_uart_ex.c **** /* Private define ------------------------------------------------------------*/
  80:Drivers/STM32L4xx_HAL_Driver/Src/stm32l4xx_hal_uart_ex.c **** /* Private macros ------------------------------------------------------------*/
  81:Drivers/STM32L4xx_HAL_Driver/Src/stm32l4xx_hal_uart_ex.c **** /* Private variables ---------------------------------------------------------*/
  82:Drivers/STM32L4xx_HAL_Driver/Src/stm32l4xx_hal_uart_ex.c **** /* Private function prototypes -----------------------------------------------*/
  83:Drivers/STM32L4xx_HAL_Driver/Src/stm32l4xx_hal_uart_ex.c **** /** @defgroup UARTEx_Private_Functions UARTEx Private Functions
  84:Drivers/STM32L4xx_HAL_Driver/Src/stm32l4xx_hal_uart_ex.c ****   * @{
  85:Drivers/STM32L4xx_HAL_Driver/Src/stm32l4xx_hal_uart_ex.c ****   */
  86:Drivers/STM32L4xx_HAL_Driver/Src/stm32l4xx_hal_uart_ex.c **** static void UARTEx_Wakeup_AddressConfig(UART_HandleTypeDef *huart, UART_WakeUpTypeDef WakeUpSelecti
  87:Drivers/STM32L4xx_HAL_Driver/Src/stm32l4xx_hal_uart_ex.c **** #if defined(USART_CR1_FIFOEN)
  88:Drivers/STM32L4xx_HAL_Driver/Src/stm32l4xx_hal_uart_ex.c **** static void UARTEx_SetNbDataToProcess(UART_HandleTypeDef *huart);
ARM GAS  /tmp/ccpYhBeZ.s 			page 3


  89:Drivers/STM32L4xx_HAL_Driver/Src/stm32l4xx_hal_uart_ex.c **** #endif
  90:Drivers/STM32L4xx_HAL_Driver/Src/stm32l4xx_hal_uart_ex.c **** /**
  91:Drivers/STM32L4xx_HAL_Driver/Src/stm32l4xx_hal_uart_ex.c ****   * @}
  92:Drivers/STM32L4xx_HAL_Driver/Src/stm32l4xx_hal_uart_ex.c ****   */
  93:Drivers/STM32L4xx_HAL_Driver/Src/stm32l4xx_hal_uart_ex.c **** 
  94:Drivers/STM32L4xx_HAL_Driver/Src/stm32l4xx_hal_uart_ex.c **** /* Exported functions --------------------------------------------------------*/
  95:Drivers/STM32L4xx_HAL_Driver/Src/stm32l4xx_hal_uart_ex.c **** 
  96:Drivers/STM32L4xx_HAL_Driver/Src/stm32l4xx_hal_uart_ex.c **** /** @defgroup UARTEx_Exported_Functions  UARTEx Exported Functions
  97:Drivers/STM32L4xx_HAL_Driver/Src/stm32l4xx_hal_uart_ex.c ****   * @{
  98:Drivers/STM32L4xx_HAL_Driver/Src/stm32l4xx_hal_uart_ex.c ****   */
  99:Drivers/STM32L4xx_HAL_Driver/Src/stm32l4xx_hal_uart_ex.c **** 
 100:Drivers/STM32L4xx_HAL_Driver/Src/stm32l4xx_hal_uart_ex.c **** /** @defgroup UARTEx_Exported_Functions_Group1 Initialization and de-initialization functions
 101:Drivers/STM32L4xx_HAL_Driver/Src/stm32l4xx_hal_uart_ex.c ****   * @brief    Extended Initialization and Configuration Functions
 102:Drivers/STM32L4xx_HAL_Driver/Src/stm32l4xx_hal_uart_ex.c ****   *
 103:Drivers/STM32L4xx_HAL_Driver/Src/stm32l4xx_hal_uart_ex.c **** @verbatim
 104:Drivers/STM32L4xx_HAL_Driver/Src/stm32l4xx_hal_uart_ex.c **** ===============================================================================
 105:Drivers/STM32L4xx_HAL_Driver/Src/stm32l4xx_hal_uart_ex.c ****             ##### Initialization and Configuration functions #####
 106:Drivers/STM32L4xx_HAL_Driver/Src/stm32l4xx_hal_uart_ex.c ****  ===============================================================================
 107:Drivers/STM32L4xx_HAL_Driver/Src/stm32l4xx_hal_uart_ex.c ****     [..]
 108:Drivers/STM32L4xx_HAL_Driver/Src/stm32l4xx_hal_uart_ex.c ****     This subsection provides a set of functions allowing to initialize the USARTx or the UARTy
 109:Drivers/STM32L4xx_HAL_Driver/Src/stm32l4xx_hal_uart_ex.c ****     in asynchronous mode.
 110:Drivers/STM32L4xx_HAL_Driver/Src/stm32l4xx_hal_uart_ex.c ****       (+) For the asynchronous mode the parameters below can be configured:
 111:Drivers/STM32L4xx_HAL_Driver/Src/stm32l4xx_hal_uart_ex.c ****         (++) Baud Rate
 112:Drivers/STM32L4xx_HAL_Driver/Src/stm32l4xx_hal_uart_ex.c ****         (++) Word Length
 113:Drivers/STM32L4xx_HAL_Driver/Src/stm32l4xx_hal_uart_ex.c ****         (++) Stop Bit
 114:Drivers/STM32L4xx_HAL_Driver/Src/stm32l4xx_hal_uart_ex.c ****         (++) Parity: If the parity is enabled, then the MSB bit of the data written
 115:Drivers/STM32L4xx_HAL_Driver/Src/stm32l4xx_hal_uart_ex.c ****              in the data register is transmitted but is changed by the parity bit.
 116:Drivers/STM32L4xx_HAL_Driver/Src/stm32l4xx_hal_uart_ex.c ****         (++) Hardware flow control
 117:Drivers/STM32L4xx_HAL_Driver/Src/stm32l4xx_hal_uart_ex.c ****         (++) Receiver/transmitter modes
 118:Drivers/STM32L4xx_HAL_Driver/Src/stm32l4xx_hal_uart_ex.c ****         (++) Over Sampling Method
 119:Drivers/STM32L4xx_HAL_Driver/Src/stm32l4xx_hal_uart_ex.c ****         (++) One-Bit Sampling Method
 120:Drivers/STM32L4xx_HAL_Driver/Src/stm32l4xx_hal_uart_ex.c ****       (+) For the asynchronous mode, the following advanced features can be configured as well:
 121:Drivers/STM32L4xx_HAL_Driver/Src/stm32l4xx_hal_uart_ex.c ****         (++) TX and/or RX pin level inversion
 122:Drivers/STM32L4xx_HAL_Driver/Src/stm32l4xx_hal_uart_ex.c ****         (++) data logical level inversion
 123:Drivers/STM32L4xx_HAL_Driver/Src/stm32l4xx_hal_uart_ex.c ****         (++) RX and TX pins swap
 124:Drivers/STM32L4xx_HAL_Driver/Src/stm32l4xx_hal_uart_ex.c ****         (++) RX overrun detection disabling
 125:Drivers/STM32L4xx_HAL_Driver/Src/stm32l4xx_hal_uart_ex.c ****         (++) DMA disabling on RX error
 126:Drivers/STM32L4xx_HAL_Driver/Src/stm32l4xx_hal_uart_ex.c ****         (++) MSB first on communication line
 127:Drivers/STM32L4xx_HAL_Driver/Src/stm32l4xx_hal_uart_ex.c ****         (++) auto Baud rate detection
 128:Drivers/STM32L4xx_HAL_Driver/Src/stm32l4xx_hal_uart_ex.c ****     [..]
 129:Drivers/STM32L4xx_HAL_Driver/Src/stm32l4xx_hal_uart_ex.c ****     The HAL_RS485Ex_Init() API follows the UART RS485 mode configuration
 130:Drivers/STM32L4xx_HAL_Driver/Src/stm32l4xx_hal_uart_ex.c ****      procedures (details for the procedures are available in reference manual).
 131:Drivers/STM32L4xx_HAL_Driver/Src/stm32l4xx_hal_uart_ex.c **** 
 132:Drivers/STM32L4xx_HAL_Driver/Src/stm32l4xx_hal_uart_ex.c **** @endverbatim
 133:Drivers/STM32L4xx_HAL_Driver/Src/stm32l4xx_hal_uart_ex.c **** 
 134:Drivers/STM32L4xx_HAL_Driver/Src/stm32l4xx_hal_uart_ex.c ****   Depending on the frame length defined by the M1 and M0 bits (7-bit, 
 135:Drivers/STM32L4xx_HAL_Driver/Src/stm32l4xx_hal_uart_ex.c ****   8-bit or 9-bit), the possible UART formats are listed in the 
 136:Drivers/STM32L4xx_HAL_Driver/Src/stm32l4xx_hal_uart_ex.c ****   following table.
 137:Drivers/STM32L4xx_HAL_Driver/Src/stm32l4xx_hal_uart_ex.c ****   
 138:Drivers/STM32L4xx_HAL_Driver/Src/stm32l4xx_hal_uart_ex.c ****     Table 1. UART frame format.
 139:Drivers/STM32L4xx_HAL_Driver/Src/stm32l4xx_hal_uart_ex.c ****     +-----------------------------------------------------------------------+
 140:Drivers/STM32L4xx_HAL_Driver/Src/stm32l4xx_hal_uart_ex.c ****     |  M1 bit |  M0 bit |  PCE bit  |             UART frame                |
 141:Drivers/STM32L4xx_HAL_Driver/Src/stm32l4xx_hal_uart_ex.c ****     |---------|---------|-----------|---------------------------------------|
 142:Drivers/STM32L4xx_HAL_Driver/Src/stm32l4xx_hal_uart_ex.c ****     |    0    |    0    |    0      |    | SB |    8 bit data   | STB |     |
 143:Drivers/STM32L4xx_HAL_Driver/Src/stm32l4xx_hal_uart_ex.c ****     |---------|---------|-----------|---------------------------------------|
 144:Drivers/STM32L4xx_HAL_Driver/Src/stm32l4xx_hal_uart_ex.c ****     |    0    |    0    |    1      |    | SB | 7 bit data | PB | STB |     |
 145:Drivers/STM32L4xx_HAL_Driver/Src/stm32l4xx_hal_uart_ex.c ****     |---------|---------|-----------|---------------------------------------|
ARM GAS  /tmp/ccpYhBeZ.s 			page 4


 146:Drivers/STM32L4xx_HAL_Driver/Src/stm32l4xx_hal_uart_ex.c ****     |    0    |    1    |    0      |    | SB |    9 bit data   | STB |     |
 147:Drivers/STM32L4xx_HAL_Driver/Src/stm32l4xx_hal_uart_ex.c ****     |---------|---------|-----------|---------------------------------------|
 148:Drivers/STM32L4xx_HAL_Driver/Src/stm32l4xx_hal_uart_ex.c ****     |    0    |    1    |    1      |    | SB | 8 bit data | PB | STB |     |
 149:Drivers/STM32L4xx_HAL_Driver/Src/stm32l4xx_hal_uart_ex.c ****     |---------|---------|-----------|---------------------------------------|
 150:Drivers/STM32L4xx_HAL_Driver/Src/stm32l4xx_hal_uart_ex.c ****     |    1    |    0    |    0      |    | SB |    7 bit data   | STB |     |
 151:Drivers/STM32L4xx_HAL_Driver/Src/stm32l4xx_hal_uart_ex.c ****     |---------|---------|-----------|---------------------------------------|
 152:Drivers/STM32L4xx_HAL_Driver/Src/stm32l4xx_hal_uart_ex.c ****     |    1    |    0    |    1      |    | SB | 6 bit data | PB | STB |     |
 153:Drivers/STM32L4xx_HAL_Driver/Src/stm32l4xx_hal_uart_ex.c ****     +-----------------------------------------------------------------------+
 154:Drivers/STM32L4xx_HAL_Driver/Src/stm32l4xx_hal_uart_ex.c **** 
 155:Drivers/STM32L4xx_HAL_Driver/Src/stm32l4xx_hal_uart_ex.c ****   * @{
 156:Drivers/STM32L4xx_HAL_Driver/Src/stm32l4xx_hal_uart_ex.c ****   */
 157:Drivers/STM32L4xx_HAL_Driver/Src/stm32l4xx_hal_uart_ex.c **** 
 158:Drivers/STM32L4xx_HAL_Driver/Src/stm32l4xx_hal_uart_ex.c **** /**
 159:Drivers/STM32L4xx_HAL_Driver/Src/stm32l4xx_hal_uart_ex.c ****   * @brief Initialize the RS485 Driver enable feature according to the specified
 160:Drivers/STM32L4xx_HAL_Driver/Src/stm32l4xx_hal_uart_ex.c ****   *         parameters in the UART_InitTypeDef and creates the associated handle.
 161:Drivers/STM32L4xx_HAL_Driver/Src/stm32l4xx_hal_uart_ex.c ****   * @param huart            UART handle.
 162:Drivers/STM32L4xx_HAL_Driver/Src/stm32l4xx_hal_uart_ex.c ****   * @param Polarity         Select the driver enable polarity.
 163:Drivers/STM32L4xx_HAL_Driver/Src/stm32l4xx_hal_uart_ex.c ****   *          This parameter can be one of the following values:
 164:Drivers/STM32L4xx_HAL_Driver/Src/stm32l4xx_hal_uart_ex.c ****   *          @arg @ref UART_DE_POLARITY_HIGH DE signal is active high
 165:Drivers/STM32L4xx_HAL_Driver/Src/stm32l4xx_hal_uart_ex.c ****   *          @arg @ref UART_DE_POLARITY_LOW  DE signal is active low
 166:Drivers/STM32L4xx_HAL_Driver/Src/stm32l4xx_hal_uart_ex.c ****   * @param AssertionTime    Driver Enable assertion time:
 167:Drivers/STM32L4xx_HAL_Driver/Src/stm32l4xx_hal_uart_ex.c ****   *       5-bit value defining the time between the activation of the DE (Driver Enable)
 168:Drivers/STM32L4xx_HAL_Driver/Src/stm32l4xx_hal_uart_ex.c ****   *       signal and the beginning of the start bit. It is expressed in sample time
 169:Drivers/STM32L4xx_HAL_Driver/Src/stm32l4xx_hal_uart_ex.c ****   *       units (1/8 or 1/16 bit time, depending on the oversampling rate)
 170:Drivers/STM32L4xx_HAL_Driver/Src/stm32l4xx_hal_uart_ex.c ****   * @param DeassertionTime  Driver Enable deassertion time:
 171:Drivers/STM32L4xx_HAL_Driver/Src/stm32l4xx_hal_uart_ex.c ****   *       5-bit value defining the time between the end of the last stop bit, in a
 172:Drivers/STM32L4xx_HAL_Driver/Src/stm32l4xx_hal_uart_ex.c ****   *       transmitted message, and the de-activation of the DE (Driver Enable) signal.
 173:Drivers/STM32L4xx_HAL_Driver/Src/stm32l4xx_hal_uart_ex.c ****   *       It is expressed in sample time units (1/8 or 1/16 bit time, depending on the
 174:Drivers/STM32L4xx_HAL_Driver/Src/stm32l4xx_hal_uart_ex.c ****   *       oversampling rate).
 175:Drivers/STM32L4xx_HAL_Driver/Src/stm32l4xx_hal_uart_ex.c ****   * @retval HAL status
 176:Drivers/STM32L4xx_HAL_Driver/Src/stm32l4xx_hal_uart_ex.c ****   */
 177:Drivers/STM32L4xx_HAL_Driver/Src/stm32l4xx_hal_uart_ex.c **** HAL_StatusTypeDef HAL_RS485Ex_Init(UART_HandleTypeDef *huart, uint32_t Polarity, uint32_t Assertion
 178:Drivers/STM32L4xx_HAL_Driver/Src/stm32l4xx_hal_uart_ex.c **** {
 179:Drivers/STM32L4xx_HAL_Driver/Src/stm32l4xx_hal_uart_ex.c ****   uint32_t temp = 0x0;
 180:Drivers/STM32L4xx_HAL_Driver/Src/stm32l4xx_hal_uart_ex.c ****   
 181:Drivers/STM32L4xx_HAL_Driver/Src/stm32l4xx_hal_uart_ex.c ****   /* Check the UART handle allocation */
 182:Drivers/STM32L4xx_HAL_Driver/Src/stm32l4xx_hal_uart_ex.c ****   if(huart == NULL)
 183:Drivers/STM32L4xx_HAL_Driver/Src/stm32l4xx_hal_uart_ex.c ****   {
 184:Drivers/STM32L4xx_HAL_Driver/Src/stm32l4xx_hal_uart_ex.c ****     return HAL_ERROR;
 185:Drivers/STM32L4xx_HAL_Driver/Src/stm32l4xx_hal_uart_ex.c ****   }
 186:Drivers/STM32L4xx_HAL_Driver/Src/stm32l4xx_hal_uart_ex.c ****   /* Check the Driver Enable UART instance */
 187:Drivers/STM32L4xx_HAL_Driver/Src/stm32l4xx_hal_uart_ex.c ****   assert_param(IS_UART_DRIVER_ENABLE_INSTANCE(huart->Instance));
 188:Drivers/STM32L4xx_HAL_Driver/Src/stm32l4xx_hal_uart_ex.c ****   
 189:Drivers/STM32L4xx_HAL_Driver/Src/stm32l4xx_hal_uart_ex.c ****   /* Check the Driver Enable polarity */
 190:Drivers/STM32L4xx_HAL_Driver/Src/stm32l4xx_hal_uart_ex.c ****   assert_param(IS_UART_DE_POLARITY(Polarity));
 191:Drivers/STM32L4xx_HAL_Driver/Src/stm32l4xx_hal_uart_ex.c ****   
 192:Drivers/STM32L4xx_HAL_Driver/Src/stm32l4xx_hal_uart_ex.c ****   /* Check the Driver Enable assertion time */
 193:Drivers/STM32L4xx_HAL_Driver/Src/stm32l4xx_hal_uart_ex.c ****   assert_param(IS_UART_ASSERTIONTIME(AssertionTime));
 194:Drivers/STM32L4xx_HAL_Driver/Src/stm32l4xx_hal_uart_ex.c ****   
 195:Drivers/STM32L4xx_HAL_Driver/Src/stm32l4xx_hal_uart_ex.c ****   /* Check the Driver Enable deassertion time */
 196:Drivers/STM32L4xx_HAL_Driver/Src/stm32l4xx_hal_uart_ex.c ****   assert_param(IS_UART_DEASSERTIONTIME(DeassertionTime));
 197:Drivers/STM32L4xx_HAL_Driver/Src/stm32l4xx_hal_uart_ex.c ****   
 198:Drivers/STM32L4xx_HAL_Driver/Src/stm32l4xx_hal_uart_ex.c ****   if(huart->gState == HAL_UART_STATE_RESET)
 199:Drivers/STM32L4xx_HAL_Driver/Src/stm32l4xx_hal_uart_ex.c ****   {
 200:Drivers/STM32L4xx_HAL_Driver/Src/stm32l4xx_hal_uart_ex.c ****     /* Allocate lock resource and initialize it */
 201:Drivers/STM32L4xx_HAL_Driver/Src/stm32l4xx_hal_uart_ex.c ****     huart->Lock = HAL_UNLOCKED;
 202:Drivers/STM32L4xx_HAL_Driver/Src/stm32l4xx_hal_uart_ex.c ****     
ARM GAS  /tmp/ccpYhBeZ.s 			page 5


 203:Drivers/STM32L4xx_HAL_Driver/Src/stm32l4xx_hal_uart_ex.c ****     /* Init the low level hardware : GPIO, CLOCK, CORTEX */
 204:Drivers/STM32L4xx_HAL_Driver/Src/stm32l4xx_hal_uart_ex.c ****     HAL_UART_MspInit(huart);
 205:Drivers/STM32L4xx_HAL_Driver/Src/stm32l4xx_hal_uart_ex.c ****   }
 206:Drivers/STM32L4xx_HAL_Driver/Src/stm32l4xx_hal_uart_ex.c ****   
 207:Drivers/STM32L4xx_HAL_Driver/Src/stm32l4xx_hal_uart_ex.c ****   huart->gState = HAL_UART_STATE_BUSY;
 208:Drivers/STM32L4xx_HAL_Driver/Src/stm32l4xx_hal_uart_ex.c ****   
 209:Drivers/STM32L4xx_HAL_Driver/Src/stm32l4xx_hal_uart_ex.c ****   /* Disable the Peripheral */
 210:Drivers/STM32L4xx_HAL_Driver/Src/stm32l4xx_hal_uart_ex.c ****   __HAL_UART_DISABLE(huart);
 211:Drivers/STM32L4xx_HAL_Driver/Src/stm32l4xx_hal_uart_ex.c ****   
 212:Drivers/STM32L4xx_HAL_Driver/Src/stm32l4xx_hal_uart_ex.c ****   /* Set the UART Communication parameters */
 213:Drivers/STM32L4xx_HAL_Driver/Src/stm32l4xx_hal_uart_ex.c ****   if (UART_SetConfig(huart) == HAL_ERROR)
 214:Drivers/STM32L4xx_HAL_Driver/Src/stm32l4xx_hal_uart_ex.c ****   {
 215:Drivers/STM32L4xx_HAL_Driver/Src/stm32l4xx_hal_uart_ex.c ****     return HAL_ERROR;
 216:Drivers/STM32L4xx_HAL_Driver/Src/stm32l4xx_hal_uart_ex.c ****   }
 217:Drivers/STM32L4xx_HAL_Driver/Src/stm32l4xx_hal_uart_ex.c ****   
 218:Drivers/STM32L4xx_HAL_Driver/Src/stm32l4xx_hal_uart_ex.c ****   if(huart->AdvancedInit.AdvFeatureInit != UART_ADVFEATURE_NO_INIT)
 219:Drivers/STM32L4xx_HAL_Driver/Src/stm32l4xx_hal_uart_ex.c ****   {
 220:Drivers/STM32L4xx_HAL_Driver/Src/stm32l4xx_hal_uart_ex.c ****     UART_AdvFeatureConfig(huart);
 221:Drivers/STM32L4xx_HAL_Driver/Src/stm32l4xx_hal_uart_ex.c ****   }
 222:Drivers/STM32L4xx_HAL_Driver/Src/stm32l4xx_hal_uart_ex.c ****   
 223:Drivers/STM32L4xx_HAL_Driver/Src/stm32l4xx_hal_uart_ex.c ****   /* Enable the Driver Enable mode by setting the DEM bit in the CR3 register */
 224:Drivers/STM32L4xx_HAL_Driver/Src/stm32l4xx_hal_uart_ex.c ****   SET_BIT(huart->Instance->CR3, USART_CR3_DEM);
 225:Drivers/STM32L4xx_HAL_Driver/Src/stm32l4xx_hal_uart_ex.c ****   
 226:Drivers/STM32L4xx_HAL_Driver/Src/stm32l4xx_hal_uart_ex.c ****   /* Set the Driver Enable polarity */
 227:Drivers/STM32L4xx_HAL_Driver/Src/stm32l4xx_hal_uart_ex.c ****   MODIFY_REG(huart->Instance->CR3, USART_CR3_DEP, Polarity);
 228:Drivers/STM32L4xx_HAL_Driver/Src/stm32l4xx_hal_uart_ex.c ****   
 229:Drivers/STM32L4xx_HAL_Driver/Src/stm32l4xx_hal_uart_ex.c ****   /* Set the Driver Enable assertion and deassertion times */
 230:Drivers/STM32L4xx_HAL_Driver/Src/stm32l4xx_hal_uart_ex.c ****   temp = (AssertionTime << UART_CR1_DEAT_ADDRESS_LSB_POS);
 231:Drivers/STM32L4xx_HAL_Driver/Src/stm32l4xx_hal_uart_ex.c ****   temp |= (DeassertionTime << UART_CR1_DEDT_ADDRESS_LSB_POS);
 232:Drivers/STM32L4xx_HAL_Driver/Src/stm32l4xx_hal_uart_ex.c ****   MODIFY_REG(huart->Instance->CR1, (USART_CR1_DEDT|USART_CR1_DEAT), temp);
 233:Drivers/STM32L4xx_HAL_Driver/Src/stm32l4xx_hal_uart_ex.c ****   
 234:Drivers/STM32L4xx_HAL_Driver/Src/stm32l4xx_hal_uart_ex.c ****   /* Enable the Peripheral */
 235:Drivers/STM32L4xx_HAL_Driver/Src/stm32l4xx_hal_uart_ex.c ****   __HAL_UART_ENABLE(huart);
 236:Drivers/STM32L4xx_HAL_Driver/Src/stm32l4xx_hal_uart_ex.c ****   
 237:Drivers/STM32L4xx_HAL_Driver/Src/stm32l4xx_hal_uart_ex.c ****   /* TEACK and/or REACK to check before moving huart->gState and huart->RxState to Ready */
 238:Drivers/STM32L4xx_HAL_Driver/Src/stm32l4xx_hal_uart_ex.c ****   return (UART_CheckIdleState(huart));
 239:Drivers/STM32L4xx_HAL_Driver/Src/stm32l4xx_hal_uart_ex.c **** }
 240:Drivers/STM32L4xx_HAL_Driver/Src/stm32l4xx_hal_uart_ex.c **** 
 241:Drivers/STM32L4xx_HAL_Driver/Src/stm32l4xx_hal_uart_ex.c **** 
 242:Drivers/STM32L4xx_HAL_Driver/Src/stm32l4xx_hal_uart_ex.c **** /**
 243:Drivers/STM32L4xx_HAL_Driver/Src/stm32l4xx_hal_uart_ex.c ****   * @}
 244:Drivers/STM32L4xx_HAL_Driver/Src/stm32l4xx_hal_uart_ex.c ****   */
 245:Drivers/STM32L4xx_HAL_Driver/Src/stm32l4xx_hal_uart_ex.c **** 
 246:Drivers/STM32L4xx_HAL_Driver/Src/stm32l4xx_hal_uart_ex.c **** /** @defgroup UARTEx_Exported_Functions_Group2 IO operation functions
 247:Drivers/STM32L4xx_HAL_Driver/Src/stm32l4xx_hal_uart_ex.c ****   *  @brief Extended functions
 248:Drivers/STM32L4xx_HAL_Driver/Src/stm32l4xx_hal_uart_ex.c ****   *
 249:Drivers/STM32L4xx_HAL_Driver/Src/stm32l4xx_hal_uart_ex.c **** @verbatim
 250:Drivers/STM32L4xx_HAL_Driver/Src/stm32l4xx_hal_uart_ex.c ****  ===============================================================================
 251:Drivers/STM32L4xx_HAL_Driver/Src/stm32l4xx_hal_uart_ex.c ****                       ##### IO operation functions #####
 252:Drivers/STM32L4xx_HAL_Driver/Src/stm32l4xx_hal_uart_ex.c ****  ===============================================================================
 253:Drivers/STM32L4xx_HAL_Driver/Src/stm32l4xx_hal_uart_ex.c ****     This subsection provides a set of Wakeup and FIFO mode related callback functions.
 254:Drivers/STM32L4xx_HAL_Driver/Src/stm32l4xx_hal_uart_ex.c **** 
 255:Drivers/STM32L4xx_HAL_Driver/Src/stm32l4xx_hal_uart_ex.c ****     (#) Wakeup from Stop mode Callback:
 256:Drivers/STM32L4xx_HAL_Driver/Src/stm32l4xx_hal_uart_ex.c ****         (+) HAL_UARTEx_WakeupCallback()
 257:Drivers/STM32L4xx_HAL_Driver/Src/stm32l4xx_hal_uart_ex.c **** 
 258:Drivers/STM32L4xx_HAL_Driver/Src/stm32l4xx_hal_uart_ex.c ****     (#) TX/RX Fifos Callbacks:
 259:Drivers/STM32L4xx_HAL_Driver/Src/stm32l4xx_hal_uart_ex.c ****         (+) HAL_UARTEx_RxFifoFullCallback()
ARM GAS  /tmp/ccpYhBeZ.s 			page 6


 260:Drivers/STM32L4xx_HAL_Driver/Src/stm32l4xx_hal_uart_ex.c ****         (+) HAL_UARTEx_TxFifoEmptyCallback()
 261:Drivers/STM32L4xx_HAL_Driver/Src/stm32l4xx_hal_uart_ex.c **** 
 262:Drivers/STM32L4xx_HAL_Driver/Src/stm32l4xx_hal_uart_ex.c **** @endverbatim
 263:Drivers/STM32L4xx_HAL_Driver/Src/stm32l4xx_hal_uart_ex.c ****   * @{
 264:Drivers/STM32L4xx_HAL_Driver/Src/stm32l4xx_hal_uart_ex.c ****   */
 265:Drivers/STM32L4xx_HAL_Driver/Src/stm32l4xx_hal_uart_ex.c **** 
 266:Drivers/STM32L4xx_HAL_Driver/Src/stm32l4xx_hal_uart_ex.c **** /**
 267:Drivers/STM32L4xx_HAL_Driver/Src/stm32l4xx_hal_uart_ex.c ****   * @brief UART wakeup from Stop mode callback.
 268:Drivers/STM32L4xx_HAL_Driver/Src/stm32l4xx_hal_uart_ex.c ****   * @param huart UART handle.
 269:Drivers/STM32L4xx_HAL_Driver/Src/stm32l4xx_hal_uart_ex.c ****   * @retval None
 270:Drivers/STM32L4xx_HAL_Driver/Src/stm32l4xx_hal_uart_ex.c ****   */
 271:Drivers/STM32L4xx_HAL_Driver/Src/stm32l4xx_hal_uart_ex.c ****  __weak void HAL_UARTEx_WakeupCallback(UART_HandleTypeDef *huart)
 272:Drivers/STM32L4xx_HAL_Driver/Src/stm32l4xx_hal_uart_ex.c **** {
 273:Drivers/STM32L4xx_HAL_Driver/Src/stm32l4xx_hal_uart_ex.c ****   /* Prevent unused argument(s) compilation warning */
 274:Drivers/STM32L4xx_HAL_Driver/Src/stm32l4xx_hal_uart_ex.c ****   UNUSED(huart);
 275:Drivers/STM32L4xx_HAL_Driver/Src/stm32l4xx_hal_uart_ex.c **** 
 276:Drivers/STM32L4xx_HAL_Driver/Src/stm32l4xx_hal_uart_ex.c ****   /* NOTE : This function should not be modified, when the callback is needed,
 277:Drivers/STM32L4xx_HAL_Driver/Src/stm32l4xx_hal_uart_ex.c ****             the HAL_UARTEx_WakeupCallback can be implemented in the user file.
 278:Drivers/STM32L4xx_HAL_Driver/Src/stm32l4xx_hal_uart_ex.c ****    */
 279:Drivers/STM32L4xx_HAL_Driver/Src/stm32l4xx_hal_uart_ex.c **** }
 280:Drivers/STM32L4xx_HAL_Driver/Src/stm32l4xx_hal_uart_ex.c **** 
 281:Drivers/STM32L4xx_HAL_Driver/Src/stm32l4xx_hal_uart_ex.c **** #if defined(USART_CR1_FIFOEN)
 282:Drivers/STM32L4xx_HAL_Driver/Src/stm32l4xx_hal_uart_ex.c **** /**
 283:Drivers/STM32L4xx_HAL_Driver/Src/stm32l4xx_hal_uart_ex.c ****   * @brief  UART RX Fifo full callback.
 284:Drivers/STM32L4xx_HAL_Driver/Src/stm32l4xx_hal_uart_ex.c ****   * @param  huart UART handle.
 285:Drivers/STM32L4xx_HAL_Driver/Src/stm32l4xx_hal_uart_ex.c ****   * @retval None
 286:Drivers/STM32L4xx_HAL_Driver/Src/stm32l4xx_hal_uart_ex.c ****   */
 287:Drivers/STM32L4xx_HAL_Driver/Src/stm32l4xx_hal_uart_ex.c **** __weak void HAL_UARTEx_RxFifoFullCallback (UART_HandleTypeDef *huart)
 288:Drivers/STM32L4xx_HAL_Driver/Src/stm32l4xx_hal_uart_ex.c **** {
 289:Drivers/STM32L4xx_HAL_Driver/Src/stm32l4xx_hal_uart_ex.c ****   /* Prevent unused argument(s) compilation warning */
 290:Drivers/STM32L4xx_HAL_Driver/Src/stm32l4xx_hal_uart_ex.c ****   UNUSED(huart);
 291:Drivers/STM32L4xx_HAL_Driver/Src/stm32l4xx_hal_uart_ex.c **** 
 292:Drivers/STM32L4xx_HAL_Driver/Src/stm32l4xx_hal_uart_ex.c ****   /* NOTE : This function should not be modified, when the callback is needed,
 293:Drivers/STM32L4xx_HAL_Driver/Src/stm32l4xx_hal_uart_ex.c ****             the HAL_UARTEx_RxFifoFullCallback can be implemented in the user file.
 294:Drivers/STM32L4xx_HAL_Driver/Src/stm32l4xx_hal_uart_ex.c ****    */
 295:Drivers/STM32L4xx_HAL_Driver/Src/stm32l4xx_hal_uart_ex.c **** }
 296:Drivers/STM32L4xx_HAL_Driver/Src/stm32l4xx_hal_uart_ex.c **** 
 297:Drivers/STM32L4xx_HAL_Driver/Src/stm32l4xx_hal_uart_ex.c **** /**
 298:Drivers/STM32L4xx_HAL_Driver/Src/stm32l4xx_hal_uart_ex.c ****   * @brief  UART TX Fifo empty callback.
 299:Drivers/STM32L4xx_HAL_Driver/Src/stm32l4xx_hal_uart_ex.c ****   * @param  huart UART handle.
 300:Drivers/STM32L4xx_HAL_Driver/Src/stm32l4xx_hal_uart_ex.c ****   * @retval None
 301:Drivers/STM32L4xx_HAL_Driver/Src/stm32l4xx_hal_uart_ex.c ****   */
 302:Drivers/STM32L4xx_HAL_Driver/Src/stm32l4xx_hal_uart_ex.c **** __weak void HAL_UARTEx_TxFifoEmptyCallback (UART_HandleTypeDef *huart)
 303:Drivers/STM32L4xx_HAL_Driver/Src/stm32l4xx_hal_uart_ex.c **** {
 304:Drivers/STM32L4xx_HAL_Driver/Src/stm32l4xx_hal_uart_ex.c ****   /* Prevent unused argument(s) compilation warning */
 305:Drivers/STM32L4xx_HAL_Driver/Src/stm32l4xx_hal_uart_ex.c ****   UNUSED(huart);
 306:Drivers/STM32L4xx_HAL_Driver/Src/stm32l4xx_hal_uart_ex.c **** 
 307:Drivers/STM32L4xx_HAL_Driver/Src/stm32l4xx_hal_uart_ex.c ****   /* NOTE : This function should not be modified, when the callback is needed,
 308:Drivers/STM32L4xx_HAL_Driver/Src/stm32l4xx_hal_uart_ex.c ****             the HAL_UARTEx_TxFifoEmptyCallback can be implemented in the user file.
 309:Drivers/STM32L4xx_HAL_Driver/Src/stm32l4xx_hal_uart_ex.c ****    */
 310:Drivers/STM32L4xx_HAL_Driver/Src/stm32l4xx_hal_uart_ex.c **** }
 311:Drivers/STM32L4xx_HAL_Driver/Src/stm32l4xx_hal_uart_ex.c **** #endif
 312:Drivers/STM32L4xx_HAL_Driver/Src/stm32l4xx_hal_uart_ex.c **** 
 313:Drivers/STM32L4xx_HAL_Driver/Src/stm32l4xx_hal_uart_ex.c **** /**
 314:Drivers/STM32L4xx_HAL_Driver/Src/stm32l4xx_hal_uart_ex.c ****   * @}
 315:Drivers/STM32L4xx_HAL_Driver/Src/stm32l4xx_hal_uart_ex.c ****   */
 316:Drivers/STM32L4xx_HAL_Driver/Src/stm32l4xx_hal_uart_ex.c **** 
ARM GAS  /tmp/ccpYhBeZ.s 			page 7


 317:Drivers/STM32L4xx_HAL_Driver/Src/stm32l4xx_hal_uart_ex.c **** /** @defgroup UARTEx_Exported_Functions_Group3 Peripheral Control functions
 318:Drivers/STM32L4xx_HAL_Driver/Src/stm32l4xx_hal_uart_ex.c ****   * @brief    Extended Peripheral Control functions
 319:Drivers/STM32L4xx_HAL_Driver/Src/stm32l4xx_hal_uart_ex.c ****  *
 320:Drivers/STM32L4xx_HAL_Driver/Src/stm32l4xx_hal_uart_ex.c **** @verbatim
 321:Drivers/STM32L4xx_HAL_Driver/Src/stm32l4xx_hal_uart_ex.c ****  ===============================================================================
 322:Drivers/STM32L4xx_HAL_Driver/Src/stm32l4xx_hal_uart_ex.c ****                       ##### Peripheral Control functions #####
 323:Drivers/STM32L4xx_HAL_Driver/Src/stm32l4xx_hal_uart_ex.c ****  ===============================================================================
 324:Drivers/STM32L4xx_HAL_Driver/Src/stm32l4xx_hal_uart_ex.c ****     [..] This section provides the following functions:
 325:Drivers/STM32L4xx_HAL_Driver/Src/stm32l4xx_hal_uart_ex.c ****      (+) HAL_UARTEx_EnableClockStopMode() API enables the UART clock (HSI or LSE only) during stop 
 326:Drivers/STM32L4xx_HAL_Driver/Src/stm32l4xx_hal_uart_ex.c ****      (+) HAL_UARTEx_DisableClockStopMode() API disables the above functionality
 327:Drivers/STM32L4xx_HAL_Driver/Src/stm32l4xx_hal_uart_ex.c ****      (+) HAL_MultiProcessorEx_AddressLength_Set() API optionally sets the UART node address
 328:Drivers/STM32L4xx_HAL_Driver/Src/stm32l4xx_hal_uart_ex.c ****          detection length to more than 4 bits for multiprocessor address mark wake up.
 329:Drivers/STM32L4xx_HAL_Driver/Src/stm32l4xx_hal_uart_ex.c ****      (+) HAL_UARTEx_StopModeWakeUpSourceConfig() API defines the wake-up from stop mode
 330:Drivers/STM32L4xx_HAL_Driver/Src/stm32l4xx_hal_uart_ex.c ****          trigger: address match, Start Bit detection or RXNE bit status.
 331:Drivers/STM32L4xx_HAL_Driver/Src/stm32l4xx_hal_uart_ex.c ****      (+) HAL_UARTEx_EnableStopMode() API enables the UART to wake up the MCU from stop mode
 332:Drivers/STM32L4xx_HAL_Driver/Src/stm32l4xx_hal_uart_ex.c ****      (+) HAL_UARTEx_DisableStopMode() API disables the above functionality
 333:Drivers/STM32L4xx_HAL_Driver/Src/stm32l4xx_hal_uart_ex.c ****      (+) HAL_UARTEx_WakeupCallback() called upon UART wakeup interrupt
 334:Drivers/STM32L4xx_HAL_Driver/Src/stm32l4xx_hal_uart_ex.c ****      (+) HAL_UARTEx_EnableSPISlaveMode() API enables the SPI slave mode
 335:Drivers/STM32L4xx_HAL_Driver/Src/stm32l4xx_hal_uart_ex.c ****      (+) HAL_UARTEx_DisableSPISlaveMode() API disables the SPI slave mode
 336:Drivers/STM32L4xx_HAL_Driver/Src/stm32l4xx_hal_uart_ex.c ****      (+) HAL_UARTEx_ConfigNSS API configures the Slave Select input pin (NSS)
 337:Drivers/STM32L4xx_HAL_Driver/Src/stm32l4xx_hal_uart_ex.c ****      (+) HAL_UARTEx_EnableFifoMode() API enables the FIFO mode
 338:Drivers/STM32L4xx_HAL_Driver/Src/stm32l4xx_hal_uart_ex.c ****      (+) HAL_UARTEx_DisableFifoMode() API disables the FIFO mode
 339:Drivers/STM32L4xx_HAL_Driver/Src/stm32l4xx_hal_uart_ex.c ****      (+) HAL_UARTEx_SetTxFifoThreshold() API sets the TX FIFO threshold
 340:Drivers/STM32L4xx_HAL_Driver/Src/stm32l4xx_hal_uart_ex.c ****      (+) HAL_UARTEx_SetRxFifoThreshold() API sets the RX FIFO threshold
 341:Drivers/STM32L4xx_HAL_Driver/Src/stm32l4xx_hal_uart_ex.c **** 
 342:Drivers/STM32L4xx_HAL_Driver/Src/stm32l4xx_hal_uart_ex.c **** @endverbatim
 343:Drivers/STM32L4xx_HAL_Driver/Src/stm32l4xx_hal_uart_ex.c ****   * @{
 344:Drivers/STM32L4xx_HAL_Driver/Src/stm32l4xx_hal_uart_ex.c ****   */
 345:Drivers/STM32L4xx_HAL_Driver/Src/stm32l4xx_hal_uart_ex.c **** 
 346:Drivers/STM32L4xx_HAL_Driver/Src/stm32l4xx_hal_uart_ex.c **** 
 347:Drivers/STM32L4xx_HAL_Driver/Src/stm32l4xx_hal_uart_ex.c **** 
 348:Drivers/STM32L4xx_HAL_Driver/Src/stm32l4xx_hal_uart_ex.c **** 
 349:Drivers/STM32L4xx_HAL_Driver/Src/stm32l4xx_hal_uart_ex.c **** /**
 350:Drivers/STM32L4xx_HAL_Driver/Src/stm32l4xx_hal_uart_ex.c ****   * @brief By default in multiprocessor mode, when the wake up method is set
 351:Drivers/STM32L4xx_HAL_Driver/Src/stm32l4xx_hal_uart_ex.c ****   *        to address mark, the UART handles only 4-bit long addresses detection;
 352:Drivers/STM32L4xx_HAL_Driver/Src/stm32l4xx_hal_uart_ex.c ****   *        this API allows to enable longer addresses detection (6-, 7- or 8-bit
 353:Drivers/STM32L4xx_HAL_Driver/Src/stm32l4xx_hal_uart_ex.c ****   *        long).
 354:Drivers/STM32L4xx_HAL_Driver/Src/stm32l4xx_hal_uart_ex.c ****   * @note  Addresses detection lengths are: 6-bit address detection in 7-bit data mode, 
 355:Drivers/STM32L4xx_HAL_Driver/Src/stm32l4xx_hal_uart_ex.c ****   *        7-bit address detection in 8-bit data mode, 8-bit address detection in 9-bit data mode.
 356:Drivers/STM32L4xx_HAL_Driver/Src/stm32l4xx_hal_uart_ex.c ****   * @param huart         UART handle.
 357:Drivers/STM32L4xx_HAL_Driver/Src/stm32l4xx_hal_uart_ex.c ****   * @param AddressLength This parameter can be one of the following values:
 358:Drivers/STM32L4xx_HAL_Driver/Src/stm32l4xx_hal_uart_ex.c ****   *          @arg @ref UART_ADDRESS_DETECT_4B 4-bit long address
 359:Drivers/STM32L4xx_HAL_Driver/Src/stm32l4xx_hal_uart_ex.c ****   *          @arg @ref UART_ADDRESS_DETECT_7B 6-, 7- or 8-bit long address
 360:Drivers/STM32L4xx_HAL_Driver/Src/stm32l4xx_hal_uart_ex.c ****   * @retval HAL status
 361:Drivers/STM32L4xx_HAL_Driver/Src/stm32l4xx_hal_uart_ex.c ****   */
 362:Drivers/STM32L4xx_HAL_Driver/Src/stm32l4xx_hal_uart_ex.c **** HAL_StatusTypeDef HAL_MultiProcessorEx_AddressLength_Set(UART_HandleTypeDef *huart, uint32_t Addres
 363:Drivers/STM32L4xx_HAL_Driver/Src/stm32l4xx_hal_uart_ex.c **** {
 364:Drivers/STM32L4xx_HAL_Driver/Src/stm32l4xx_hal_uart_ex.c ****   /* Check the UART handle allocation */
 365:Drivers/STM32L4xx_HAL_Driver/Src/stm32l4xx_hal_uart_ex.c ****   if(huart == NULL)
 366:Drivers/STM32L4xx_HAL_Driver/Src/stm32l4xx_hal_uart_ex.c ****   {
 367:Drivers/STM32L4xx_HAL_Driver/Src/stm32l4xx_hal_uart_ex.c ****     return HAL_ERROR;
 368:Drivers/STM32L4xx_HAL_Driver/Src/stm32l4xx_hal_uart_ex.c ****   }
 369:Drivers/STM32L4xx_HAL_Driver/Src/stm32l4xx_hal_uart_ex.c ****   
 370:Drivers/STM32L4xx_HAL_Driver/Src/stm32l4xx_hal_uart_ex.c ****   /* Check the address length parameter */
 371:Drivers/STM32L4xx_HAL_Driver/Src/stm32l4xx_hal_uart_ex.c ****   assert_param(IS_UART_ADDRESSLENGTH_DETECT(AddressLength));
 372:Drivers/STM32L4xx_HAL_Driver/Src/stm32l4xx_hal_uart_ex.c ****   
 373:Drivers/STM32L4xx_HAL_Driver/Src/stm32l4xx_hal_uart_ex.c ****   huart->gState = HAL_UART_STATE_BUSY;
ARM GAS  /tmp/ccpYhBeZ.s 			page 8


 374:Drivers/STM32L4xx_HAL_Driver/Src/stm32l4xx_hal_uart_ex.c ****   
 375:Drivers/STM32L4xx_HAL_Driver/Src/stm32l4xx_hal_uart_ex.c ****   /* Disable the Peripheral */
 376:Drivers/STM32L4xx_HAL_Driver/Src/stm32l4xx_hal_uart_ex.c ****   __HAL_UART_DISABLE(huart);
 377:Drivers/STM32L4xx_HAL_Driver/Src/stm32l4xx_hal_uart_ex.c ****   
 378:Drivers/STM32L4xx_HAL_Driver/Src/stm32l4xx_hal_uart_ex.c ****   /* Set the address length */
 379:Drivers/STM32L4xx_HAL_Driver/Src/stm32l4xx_hal_uart_ex.c ****   MODIFY_REG(huart->Instance->CR2, USART_CR2_ADDM7, AddressLength);
 380:Drivers/STM32L4xx_HAL_Driver/Src/stm32l4xx_hal_uart_ex.c ****   
 381:Drivers/STM32L4xx_HAL_Driver/Src/stm32l4xx_hal_uart_ex.c ****   /* Enable the Peripheral */
 382:Drivers/STM32L4xx_HAL_Driver/Src/stm32l4xx_hal_uart_ex.c ****   __HAL_UART_ENABLE(huart);
 383:Drivers/STM32L4xx_HAL_Driver/Src/stm32l4xx_hal_uart_ex.c ****   
 384:Drivers/STM32L4xx_HAL_Driver/Src/stm32l4xx_hal_uart_ex.c ****   /* TEACK and/or REACK to check before moving huart->gState to Ready */
 385:Drivers/STM32L4xx_HAL_Driver/Src/stm32l4xx_hal_uart_ex.c ****   return (UART_CheckIdleState(huart));
 386:Drivers/STM32L4xx_HAL_Driver/Src/stm32l4xx_hal_uart_ex.c **** }
 387:Drivers/STM32L4xx_HAL_Driver/Src/stm32l4xx_hal_uart_ex.c **** 
 388:Drivers/STM32L4xx_HAL_Driver/Src/stm32l4xx_hal_uart_ex.c **** 
 389:Drivers/STM32L4xx_HAL_Driver/Src/stm32l4xx_hal_uart_ex.c **** /**
 390:Drivers/STM32L4xx_HAL_Driver/Src/stm32l4xx_hal_uart_ex.c ****   * @brief Set Wakeup from Stop mode interrupt flag selection.
 391:Drivers/STM32L4xx_HAL_Driver/Src/stm32l4xx_hal_uart_ex.c ****   * @note It is the application responsibility to enable the interrupt used as
 392:Drivers/STM32L4xx_HAL_Driver/Src/stm32l4xx_hal_uart_ex.c ****   *       usart_wkup interrupt source before entering low-power mode.
 393:Drivers/STM32L4xx_HAL_Driver/Src/stm32l4xx_hal_uart_ex.c ****   * @param huart           UART handle.
 394:Drivers/STM32L4xx_HAL_Driver/Src/stm32l4xx_hal_uart_ex.c ****   * @param WakeUpSelection Address match, Start Bit detection or RXNE/RXFNE bit status.
 395:Drivers/STM32L4xx_HAL_Driver/Src/stm32l4xx_hal_uart_ex.c ****   *          This parameter can be one of the following values:
 396:Drivers/STM32L4xx_HAL_Driver/Src/stm32l4xx_hal_uart_ex.c ****   *          @arg @ref UART_WAKEUP_ON_ADDRESS
 397:Drivers/STM32L4xx_HAL_Driver/Src/stm32l4xx_hal_uart_ex.c ****   *          @arg @ref UART_WAKEUP_ON_STARTBIT
 398:Drivers/STM32L4xx_HAL_Driver/Src/stm32l4xx_hal_uart_ex.c ****   *          @arg @ref UART_WAKEUP_ON_READDATA_NONEMPTY
 399:Drivers/STM32L4xx_HAL_Driver/Src/stm32l4xx_hal_uart_ex.c ****   * @retval HAL status
 400:Drivers/STM32L4xx_HAL_Driver/Src/stm32l4xx_hal_uart_ex.c ****   */
 401:Drivers/STM32L4xx_HAL_Driver/Src/stm32l4xx_hal_uart_ex.c **** HAL_StatusTypeDef HAL_UARTEx_StopModeWakeUpSourceConfig(UART_HandleTypeDef *huart, UART_WakeUpTypeD
 402:Drivers/STM32L4xx_HAL_Driver/Src/stm32l4xx_hal_uart_ex.c **** {
 403:Drivers/STM32L4xx_HAL_Driver/Src/stm32l4xx_hal_uart_ex.c ****   HAL_StatusTypeDef status = HAL_OK;
 404:Drivers/STM32L4xx_HAL_Driver/Src/stm32l4xx_hal_uart_ex.c ****   uint32_t tickstart = 0;
 405:Drivers/STM32L4xx_HAL_Driver/Src/stm32l4xx_hal_uart_ex.c ****   
 406:Drivers/STM32L4xx_HAL_Driver/Src/stm32l4xx_hal_uart_ex.c ****   /* check the wake-up from stop mode UART instance */
 407:Drivers/STM32L4xx_HAL_Driver/Src/stm32l4xx_hal_uart_ex.c ****   assert_param(IS_UART_WAKEUP_FROMSTOP_INSTANCE(huart->Instance));
 408:Drivers/STM32L4xx_HAL_Driver/Src/stm32l4xx_hal_uart_ex.c ****   /* check the wake-up selection parameter */
 409:Drivers/STM32L4xx_HAL_Driver/Src/stm32l4xx_hal_uart_ex.c ****   assert_param(IS_UART_WAKEUP_SELECTION(WakeUpSelection.WakeUpEvent));
 410:Drivers/STM32L4xx_HAL_Driver/Src/stm32l4xx_hal_uart_ex.c ****   
 411:Drivers/STM32L4xx_HAL_Driver/Src/stm32l4xx_hal_uart_ex.c ****   /* Process Locked */
 412:Drivers/STM32L4xx_HAL_Driver/Src/stm32l4xx_hal_uart_ex.c ****   __HAL_LOCK(huart);
 413:Drivers/STM32L4xx_HAL_Driver/Src/stm32l4xx_hal_uart_ex.c ****   
 414:Drivers/STM32L4xx_HAL_Driver/Src/stm32l4xx_hal_uart_ex.c ****   huart->gState = HAL_UART_STATE_BUSY;
 415:Drivers/STM32L4xx_HAL_Driver/Src/stm32l4xx_hal_uart_ex.c ****   
 416:Drivers/STM32L4xx_HAL_Driver/Src/stm32l4xx_hal_uart_ex.c ****   /* Disable the Peripheral */
 417:Drivers/STM32L4xx_HAL_Driver/Src/stm32l4xx_hal_uart_ex.c ****   __HAL_UART_DISABLE(huart);
 418:Drivers/STM32L4xx_HAL_Driver/Src/stm32l4xx_hal_uart_ex.c ****   
 419:Drivers/STM32L4xx_HAL_Driver/Src/stm32l4xx_hal_uart_ex.c ****   /* Set the wake-up selection scheme */
 420:Drivers/STM32L4xx_HAL_Driver/Src/stm32l4xx_hal_uart_ex.c ****   MODIFY_REG(huart->Instance->CR3, USART_CR3_WUS, WakeUpSelection.WakeUpEvent);
 421:Drivers/STM32L4xx_HAL_Driver/Src/stm32l4xx_hal_uart_ex.c ****   
 422:Drivers/STM32L4xx_HAL_Driver/Src/stm32l4xx_hal_uart_ex.c ****   if (WakeUpSelection.WakeUpEvent == UART_WAKEUP_ON_ADDRESS)
 423:Drivers/STM32L4xx_HAL_Driver/Src/stm32l4xx_hal_uart_ex.c ****   {
 424:Drivers/STM32L4xx_HAL_Driver/Src/stm32l4xx_hal_uart_ex.c ****     UARTEx_Wakeup_AddressConfig(huart, WakeUpSelection);
 425:Drivers/STM32L4xx_HAL_Driver/Src/stm32l4xx_hal_uart_ex.c ****   }
 426:Drivers/STM32L4xx_HAL_Driver/Src/stm32l4xx_hal_uart_ex.c ****   
 427:Drivers/STM32L4xx_HAL_Driver/Src/stm32l4xx_hal_uart_ex.c ****   /* Enable the Peripheral */
 428:Drivers/STM32L4xx_HAL_Driver/Src/stm32l4xx_hal_uart_ex.c ****   __HAL_UART_ENABLE(huart);
 429:Drivers/STM32L4xx_HAL_Driver/Src/stm32l4xx_hal_uart_ex.c ****   
 430:Drivers/STM32L4xx_HAL_Driver/Src/stm32l4xx_hal_uart_ex.c ****   /* Init tickstart for timeout managment*/
ARM GAS  /tmp/ccpYhBeZ.s 			page 9


 431:Drivers/STM32L4xx_HAL_Driver/Src/stm32l4xx_hal_uart_ex.c ****   tickstart = HAL_GetTick();
 432:Drivers/STM32L4xx_HAL_Driver/Src/stm32l4xx_hal_uart_ex.c ****   
 433:Drivers/STM32L4xx_HAL_Driver/Src/stm32l4xx_hal_uart_ex.c ****   /* Wait until REACK flag is set */
 434:Drivers/STM32L4xx_HAL_Driver/Src/stm32l4xx_hal_uart_ex.c ****   if(UART_WaitOnFlagUntilTimeout(huart, USART_ISR_REACK, RESET, tickstart, HAL_UART_TIMEOUT_VALUE) 
 435:Drivers/STM32L4xx_HAL_Driver/Src/stm32l4xx_hal_uart_ex.c ****   {
 436:Drivers/STM32L4xx_HAL_Driver/Src/stm32l4xx_hal_uart_ex.c ****     status = HAL_TIMEOUT;
 437:Drivers/STM32L4xx_HAL_Driver/Src/stm32l4xx_hal_uart_ex.c ****   }
 438:Drivers/STM32L4xx_HAL_Driver/Src/stm32l4xx_hal_uart_ex.c ****   else
 439:Drivers/STM32L4xx_HAL_Driver/Src/stm32l4xx_hal_uart_ex.c ****   {
 440:Drivers/STM32L4xx_HAL_Driver/Src/stm32l4xx_hal_uart_ex.c ****     /* Initialize the UART State */
 441:Drivers/STM32L4xx_HAL_Driver/Src/stm32l4xx_hal_uart_ex.c ****     huart->gState = HAL_UART_STATE_READY;
 442:Drivers/STM32L4xx_HAL_Driver/Src/stm32l4xx_hal_uart_ex.c ****   }
 443:Drivers/STM32L4xx_HAL_Driver/Src/stm32l4xx_hal_uart_ex.c ****   
 444:Drivers/STM32L4xx_HAL_Driver/Src/stm32l4xx_hal_uart_ex.c ****   /* Process Unlocked */
 445:Drivers/STM32L4xx_HAL_Driver/Src/stm32l4xx_hal_uart_ex.c ****   __HAL_UNLOCK(huart);
 446:Drivers/STM32L4xx_HAL_Driver/Src/stm32l4xx_hal_uart_ex.c ****   
 447:Drivers/STM32L4xx_HAL_Driver/Src/stm32l4xx_hal_uart_ex.c ****   return status;
 448:Drivers/STM32L4xx_HAL_Driver/Src/stm32l4xx_hal_uart_ex.c **** }
 449:Drivers/STM32L4xx_HAL_Driver/Src/stm32l4xx_hal_uart_ex.c **** 
 450:Drivers/STM32L4xx_HAL_Driver/Src/stm32l4xx_hal_uart_ex.c **** 
 451:Drivers/STM32L4xx_HAL_Driver/Src/stm32l4xx_hal_uart_ex.c **** /**
 452:Drivers/STM32L4xx_HAL_Driver/Src/stm32l4xx_hal_uart_ex.c ****   * @brief Enable UART Stop Mode.
 453:Drivers/STM32L4xx_HAL_Driver/Src/stm32l4xx_hal_uart_ex.c ****   * @note The UART is able to wake up the MCU from Stop 1 mode as long as UART clock is HSI or LSE.
 454:Drivers/STM32L4xx_HAL_Driver/Src/stm32l4xx_hal_uart_ex.c ****   * @param huart UART handle.
 455:Drivers/STM32L4xx_HAL_Driver/Src/stm32l4xx_hal_uart_ex.c ****   * @retval HAL status
 456:Drivers/STM32L4xx_HAL_Driver/Src/stm32l4xx_hal_uart_ex.c ****   */
 457:Drivers/STM32L4xx_HAL_Driver/Src/stm32l4xx_hal_uart_ex.c **** HAL_StatusTypeDef HAL_UARTEx_EnableStopMode(UART_HandleTypeDef *huart)
 458:Drivers/STM32L4xx_HAL_Driver/Src/stm32l4xx_hal_uart_ex.c **** {
 459:Drivers/STM32L4xx_HAL_Driver/Src/stm32l4xx_hal_uart_ex.c ****   /* Process Locked */
 460:Drivers/STM32L4xx_HAL_Driver/Src/stm32l4xx_hal_uart_ex.c ****   __HAL_LOCK(huart);
 461:Drivers/STM32L4xx_HAL_Driver/Src/stm32l4xx_hal_uart_ex.c ****   
 462:Drivers/STM32L4xx_HAL_Driver/Src/stm32l4xx_hal_uart_ex.c ****   huart->gState = HAL_UART_STATE_BUSY;
 463:Drivers/STM32L4xx_HAL_Driver/Src/stm32l4xx_hal_uart_ex.c ****   
 464:Drivers/STM32L4xx_HAL_Driver/Src/stm32l4xx_hal_uart_ex.c ****   /* Set UESM bit */
 465:Drivers/STM32L4xx_HAL_Driver/Src/stm32l4xx_hal_uart_ex.c ****   SET_BIT(huart->Instance->CR1, USART_CR1_UESM);
 466:Drivers/STM32L4xx_HAL_Driver/Src/stm32l4xx_hal_uart_ex.c ****   
 467:Drivers/STM32L4xx_HAL_Driver/Src/stm32l4xx_hal_uart_ex.c ****   huart->gState = HAL_UART_STATE_READY;
 468:Drivers/STM32L4xx_HAL_Driver/Src/stm32l4xx_hal_uart_ex.c ****   
 469:Drivers/STM32L4xx_HAL_Driver/Src/stm32l4xx_hal_uart_ex.c ****   /* Process Unlocked */
 470:Drivers/STM32L4xx_HAL_Driver/Src/stm32l4xx_hal_uart_ex.c ****   __HAL_UNLOCK(huart);
 471:Drivers/STM32L4xx_HAL_Driver/Src/stm32l4xx_hal_uart_ex.c ****   
 472:Drivers/STM32L4xx_HAL_Driver/Src/stm32l4xx_hal_uart_ex.c ****   return HAL_OK;
 473:Drivers/STM32L4xx_HAL_Driver/Src/stm32l4xx_hal_uart_ex.c **** }
 474:Drivers/STM32L4xx_HAL_Driver/Src/stm32l4xx_hal_uart_ex.c **** 
 475:Drivers/STM32L4xx_HAL_Driver/Src/stm32l4xx_hal_uart_ex.c **** /**
 476:Drivers/STM32L4xx_HAL_Driver/Src/stm32l4xx_hal_uart_ex.c ****   * @brief Disable UART Stop Mode.
 477:Drivers/STM32L4xx_HAL_Driver/Src/stm32l4xx_hal_uart_ex.c ****   * @param huart UART handle.
 478:Drivers/STM32L4xx_HAL_Driver/Src/stm32l4xx_hal_uart_ex.c ****   * @retval HAL status
 479:Drivers/STM32L4xx_HAL_Driver/Src/stm32l4xx_hal_uart_ex.c ****   */
 480:Drivers/STM32L4xx_HAL_Driver/Src/stm32l4xx_hal_uart_ex.c **** HAL_StatusTypeDef HAL_UARTEx_DisableStopMode(UART_HandleTypeDef *huart)
 481:Drivers/STM32L4xx_HAL_Driver/Src/stm32l4xx_hal_uart_ex.c **** {
 482:Drivers/STM32L4xx_HAL_Driver/Src/stm32l4xx_hal_uart_ex.c ****   /* Process Locked */
 483:Drivers/STM32L4xx_HAL_Driver/Src/stm32l4xx_hal_uart_ex.c ****   __HAL_LOCK(huart);
 484:Drivers/STM32L4xx_HAL_Driver/Src/stm32l4xx_hal_uart_ex.c ****   
 485:Drivers/STM32L4xx_HAL_Driver/Src/stm32l4xx_hal_uart_ex.c ****   huart->gState = HAL_UART_STATE_BUSY;
 486:Drivers/STM32L4xx_HAL_Driver/Src/stm32l4xx_hal_uart_ex.c ****   
 487:Drivers/STM32L4xx_HAL_Driver/Src/stm32l4xx_hal_uart_ex.c ****   /* Clear UESM bit */
ARM GAS  /tmp/ccpYhBeZ.s 			page 10


 488:Drivers/STM32L4xx_HAL_Driver/Src/stm32l4xx_hal_uart_ex.c ****   CLEAR_BIT(huart->Instance->CR1, USART_CR1_UESM);
 489:Drivers/STM32L4xx_HAL_Driver/Src/stm32l4xx_hal_uart_ex.c ****   
 490:Drivers/STM32L4xx_HAL_Driver/Src/stm32l4xx_hal_uart_ex.c ****   huart->gState = HAL_UART_STATE_READY;
 491:Drivers/STM32L4xx_HAL_Driver/Src/stm32l4xx_hal_uart_ex.c ****   
 492:Drivers/STM32L4xx_HAL_Driver/Src/stm32l4xx_hal_uart_ex.c ****   /* Process Unlocked */
 493:Drivers/STM32L4xx_HAL_Driver/Src/stm32l4xx_hal_uart_ex.c ****   __HAL_UNLOCK(huart);
 494:Drivers/STM32L4xx_HAL_Driver/Src/stm32l4xx_hal_uart_ex.c ****   
 495:Drivers/STM32L4xx_HAL_Driver/Src/stm32l4xx_hal_uart_ex.c ****   return HAL_OK;
 496:Drivers/STM32L4xx_HAL_Driver/Src/stm32l4xx_hal_uart_ex.c **** }
 497:Drivers/STM32L4xx_HAL_Driver/Src/stm32l4xx_hal_uart_ex.c **** 
 498:Drivers/STM32L4xx_HAL_Driver/Src/stm32l4xx_hal_uart_ex.c **** #if defined(USART_CR2_SLVEN)
 499:Drivers/STM32L4xx_HAL_Driver/Src/stm32l4xx_hal_uart_ex.c **** /**
 500:Drivers/STM32L4xx_HAL_Driver/Src/stm32l4xx_hal_uart_ex.c ****   * @brief  Enable the SPI slave mode.
 501:Drivers/STM32L4xx_HAL_Driver/Src/stm32l4xx_hal_uart_ex.c ****   * @note When the UART operates in SPI slave mode, it handles data flow using
 502:Drivers/STM32L4xx_HAL_Driver/Src/stm32l4xx_hal_uart_ex.c ****   *       the serial interface clock derived from the external SCLK signal
 503:Drivers/STM32L4xx_HAL_Driver/Src/stm32l4xx_hal_uart_ex.c ****   *       provided by the external master SPI device.
 504:Drivers/STM32L4xx_HAL_Driver/Src/stm32l4xx_hal_uart_ex.c ****   * @note In SPI slave mode, the UART must be enabled before starting the master
 505:Drivers/STM32L4xx_HAL_Driver/Src/stm32l4xx_hal_uart_ex.c ****   *       communications (or between frames while the clock is stable). Otherwise,
 506:Drivers/STM32L4xx_HAL_Driver/Src/stm32l4xx_hal_uart_ex.c ****   *       if the UART slave is enabled while the master is in the middle of a
 507:Drivers/STM32L4xx_HAL_Driver/Src/stm32l4xx_hal_uart_ex.c ****   *       frame, it will become desynchronized with the master. 
 508:Drivers/STM32L4xx_HAL_Driver/Src/stm32l4xx_hal_uart_ex.c ****   * @note The data register of the slave needs to be ready before the first edge
 509:Drivers/STM32L4xx_HAL_Driver/Src/stm32l4xx_hal_uart_ex.c ****   *       of the communication clock or before the end of the ongoing communication,
 510:Drivers/STM32L4xx_HAL_Driver/Src/stm32l4xx_hal_uart_ex.c ****   *       otherwise the SPI slave will transmit zeros.
 511:Drivers/STM32L4xx_HAL_Driver/Src/stm32l4xx_hal_uart_ex.c ****   * @param huart      UART handle.
 512:Drivers/STM32L4xx_HAL_Driver/Src/stm32l4xx_hal_uart_ex.c ****   * @retval HAL status
 513:Drivers/STM32L4xx_HAL_Driver/Src/stm32l4xx_hal_uart_ex.c ****   */
 514:Drivers/STM32L4xx_HAL_Driver/Src/stm32l4xx_hal_uart_ex.c **** HAL_StatusTypeDef HAL_UARTEx_EnableSlaveMode(UART_HandleTypeDef *huart)
 515:Drivers/STM32L4xx_HAL_Driver/Src/stm32l4xx_hal_uart_ex.c **** {
 516:Drivers/STM32L4xx_HAL_Driver/Src/stm32l4xx_hal_uart_ex.c ****   uint32_t tmpcr1 = 0;
 517:Drivers/STM32L4xx_HAL_Driver/Src/stm32l4xx_hal_uart_ex.c **** 
 518:Drivers/STM32L4xx_HAL_Driver/Src/stm32l4xx_hal_uart_ex.c ****   /* Check parameters */
 519:Drivers/STM32L4xx_HAL_Driver/Src/stm32l4xx_hal_uart_ex.c ****   assert_param(IS_UART_SPI_SLAVE_INSTANCE(huart->Instance));
 520:Drivers/STM32L4xx_HAL_Driver/Src/stm32l4xx_hal_uart_ex.c ****   
 521:Drivers/STM32L4xx_HAL_Driver/Src/stm32l4xx_hal_uart_ex.c ****   /* Process Locked */
 522:Drivers/STM32L4xx_HAL_Driver/Src/stm32l4xx_hal_uart_ex.c ****   __HAL_LOCK(huart);
 523:Drivers/STM32L4xx_HAL_Driver/Src/stm32l4xx_hal_uart_ex.c ****   
 524:Drivers/STM32L4xx_HAL_Driver/Src/stm32l4xx_hal_uart_ex.c ****   huart->gState = HAL_UART_STATE_BUSY;
 525:Drivers/STM32L4xx_HAL_Driver/Src/stm32l4xx_hal_uart_ex.c ****   
 526:Drivers/STM32L4xx_HAL_Driver/Src/stm32l4xx_hal_uart_ex.c ****   /* Save actual UART configuration */
 527:Drivers/STM32L4xx_HAL_Driver/Src/stm32l4xx_hal_uart_ex.c ****   tmpcr1 = READ_REG(huart->Instance->CR1);
 528:Drivers/STM32L4xx_HAL_Driver/Src/stm32l4xx_hal_uart_ex.c ****   
 529:Drivers/STM32L4xx_HAL_Driver/Src/stm32l4xx_hal_uart_ex.c ****   /* Disable UART */
 530:Drivers/STM32L4xx_HAL_Driver/Src/stm32l4xx_hal_uart_ex.c ****   __HAL_UART_DISABLE(huart);
 531:Drivers/STM32L4xx_HAL_Driver/Src/stm32l4xx_hal_uart_ex.c ****   
 532:Drivers/STM32L4xx_HAL_Driver/Src/stm32l4xx_hal_uart_ex.c ****   /* In SPI slave mode mode, the following bits must be kept cleared:
 533:Drivers/STM32L4xx_HAL_Driver/Src/stm32l4xx_hal_uart_ex.c ****   - LINEN and CLKEN bit in the USART_CR2 register
 534:Drivers/STM32L4xx_HAL_Driver/Src/stm32l4xx_hal_uart_ex.c ****   - HDSEL, SCEN and IREN bits in the USART_CR3 register.*/
 535:Drivers/STM32L4xx_HAL_Driver/Src/stm32l4xx_hal_uart_ex.c ****   CLEAR_BIT(huart->Instance->CR2, (USART_CR2_LINEN | USART_CR2_CLKEN));
 536:Drivers/STM32L4xx_HAL_Driver/Src/stm32l4xx_hal_uart_ex.c ****   CLEAR_BIT(huart->Instance->CR3, (USART_CR3_SCEN | USART_CR3_HDSEL | USART_CR3_IREN));
 537:Drivers/STM32L4xx_HAL_Driver/Src/stm32l4xx_hal_uart_ex.c ****   
 538:Drivers/STM32L4xx_HAL_Driver/Src/stm32l4xx_hal_uart_ex.c ****   /* Enable SPI slave mode */
 539:Drivers/STM32L4xx_HAL_Driver/Src/stm32l4xx_hal_uart_ex.c ****   SET_BIT(huart->Instance->CR2, USART_CR2_SLVEN);
 540:Drivers/STM32L4xx_HAL_Driver/Src/stm32l4xx_hal_uart_ex.c ****   
 541:Drivers/STM32L4xx_HAL_Driver/Src/stm32l4xx_hal_uart_ex.c ****   /* Restore UART configuration */
 542:Drivers/STM32L4xx_HAL_Driver/Src/stm32l4xx_hal_uart_ex.c ****   WRITE_REG(huart->Instance->CR1, tmpcr1);
 543:Drivers/STM32L4xx_HAL_Driver/Src/stm32l4xx_hal_uart_ex.c ****  
 544:Drivers/STM32L4xx_HAL_Driver/Src/stm32l4xx_hal_uart_ex.c ****   huart->SlaveMode = UART_SLAVEMODE_ENABLE;
ARM GAS  /tmp/ccpYhBeZ.s 			page 11


 545:Drivers/STM32L4xx_HAL_Driver/Src/stm32l4xx_hal_uart_ex.c ****   
 546:Drivers/STM32L4xx_HAL_Driver/Src/stm32l4xx_hal_uart_ex.c ****   huart->gState = HAL_UART_STATE_READY;
 547:Drivers/STM32L4xx_HAL_Driver/Src/stm32l4xx_hal_uart_ex.c ****   
 548:Drivers/STM32L4xx_HAL_Driver/Src/stm32l4xx_hal_uart_ex.c ****   /* Enable UART */
 549:Drivers/STM32L4xx_HAL_Driver/Src/stm32l4xx_hal_uart_ex.c ****   __HAL_UART_ENABLE(huart);
 550:Drivers/STM32L4xx_HAL_Driver/Src/stm32l4xx_hal_uart_ex.c ****   
 551:Drivers/STM32L4xx_HAL_Driver/Src/stm32l4xx_hal_uart_ex.c ****   /* Process Unlocked */
 552:Drivers/STM32L4xx_HAL_Driver/Src/stm32l4xx_hal_uart_ex.c ****   __HAL_UNLOCK(huart);
 553:Drivers/STM32L4xx_HAL_Driver/Src/stm32l4xx_hal_uart_ex.c ****   
 554:Drivers/STM32L4xx_HAL_Driver/Src/stm32l4xx_hal_uart_ex.c ****   return HAL_OK;  
 555:Drivers/STM32L4xx_HAL_Driver/Src/stm32l4xx_hal_uart_ex.c **** }
 556:Drivers/STM32L4xx_HAL_Driver/Src/stm32l4xx_hal_uart_ex.c **** 
 557:Drivers/STM32L4xx_HAL_Driver/Src/stm32l4xx_hal_uart_ex.c **** /**
 558:Drivers/STM32L4xx_HAL_Driver/Src/stm32l4xx_hal_uart_ex.c ****   * @brief  Disable the SPI slave mode.
 559:Drivers/STM32L4xx_HAL_Driver/Src/stm32l4xx_hal_uart_ex.c ****   * @param huart      UART handle.
 560:Drivers/STM32L4xx_HAL_Driver/Src/stm32l4xx_hal_uart_ex.c ****   * @retval HAL status
 561:Drivers/STM32L4xx_HAL_Driver/Src/stm32l4xx_hal_uart_ex.c ****   */
 562:Drivers/STM32L4xx_HAL_Driver/Src/stm32l4xx_hal_uart_ex.c **** HAL_StatusTypeDef HAL_UARTEx_DisableSlaveMode(UART_HandleTypeDef *huart)
 563:Drivers/STM32L4xx_HAL_Driver/Src/stm32l4xx_hal_uart_ex.c **** {
 564:Drivers/STM32L4xx_HAL_Driver/Src/stm32l4xx_hal_uart_ex.c ****   uint32_t tmpcr1 = 0;
 565:Drivers/STM32L4xx_HAL_Driver/Src/stm32l4xx_hal_uart_ex.c **** 
 566:Drivers/STM32L4xx_HAL_Driver/Src/stm32l4xx_hal_uart_ex.c ****   /* Check parameters */
 567:Drivers/STM32L4xx_HAL_Driver/Src/stm32l4xx_hal_uart_ex.c ****   assert_param(IS_UART_SPI_SLAVE_INSTANCE(huart->Instance));
 568:Drivers/STM32L4xx_HAL_Driver/Src/stm32l4xx_hal_uart_ex.c ****   
 569:Drivers/STM32L4xx_HAL_Driver/Src/stm32l4xx_hal_uart_ex.c ****   /* Process Locked */
 570:Drivers/STM32L4xx_HAL_Driver/Src/stm32l4xx_hal_uart_ex.c ****   __HAL_LOCK(huart);
 571:Drivers/STM32L4xx_HAL_Driver/Src/stm32l4xx_hal_uart_ex.c ****   
 572:Drivers/STM32L4xx_HAL_Driver/Src/stm32l4xx_hal_uart_ex.c ****   huart->gState = HAL_UART_STATE_BUSY;
 573:Drivers/STM32L4xx_HAL_Driver/Src/stm32l4xx_hal_uart_ex.c ****   
 574:Drivers/STM32L4xx_HAL_Driver/Src/stm32l4xx_hal_uart_ex.c ****   /* Save actual UART configuration */
 575:Drivers/STM32L4xx_HAL_Driver/Src/stm32l4xx_hal_uart_ex.c ****   tmpcr1 = READ_REG(huart->Instance->CR1);
 576:Drivers/STM32L4xx_HAL_Driver/Src/stm32l4xx_hal_uart_ex.c ****   
 577:Drivers/STM32L4xx_HAL_Driver/Src/stm32l4xx_hal_uart_ex.c ****   /* Disable UART */
 578:Drivers/STM32L4xx_HAL_Driver/Src/stm32l4xx_hal_uart_ex.c ****   __HAL_UART_DISABLE(huart);
 579:Drivers/STM32L4xx_HAL_Driver/Src/stm32l4xx_hal_uart_ex.c **** 
 580:Drivers/STM32L4xx_HAL_Driver/Src/stm32l4xx_hal_uart_ex.c ****   /* Disable SPI slave mode */
 581:Drivers/STM32L4xx_HAL_Driver/Src/stm32l4xx_hal_uart_ex.c ****   CLEAR_BIT(huart->Instance->CR2, USART_CR2_SLVEN);
 582:Drivers/STM32L4xx_HAL_Driver/Src/stm32l4xx_hal_uart_ex.c ****   
 583:Drivers/STM32L4xx_HAL_Driver/Src/stm32l4xx_hal_uart_ex.c ****   /* Restore UART configuration */
 584:Drivers/STM32L4xx_HAL_Driver/Src/stm32l4xx_hal_uart_ex.c ****   WRITE_REG(huart->Instance->CR1, tmpcr1);
 585:Drivers/STM32L4xx_HAL_Driver/Src/stm32l4xx_hal_uart_ex.c **** 
 586:Drivers/STM32L4xx_HAL_Driver/Src/stm32l4xx_hal_uart_ex.c ****   huart->SlaveMode = UART_SLAVEMODE_ENABLE;
 587:Drivers/STM32L4xx_HAL_Driver/Src/stm32l4xx_hal_uart_ex.c ****   
 588:Drivers/STM32L4xx_HAL_Driver/Src/stm32l4xx_hal_uart_ex.c ****   huart->gState = HAL_UART_STATE_READY;
 589:Drivers/STM32L4xx_HAL_Driver/Src/stm32l4xx_hal_uart_ex.c ****   
 590:Drivers/STM32L4xx_HAL_Driver/Src/stm32l4xx_hal_uart_ex.c ****   /* Process Unlocked */
 591:Drivers/STM32L4xx_HAL_Driver/Src/stm32l4xx_hal_uart_ex.c ****   __HAL_UNLOCK(huart);
 592:Drivers/STM32L4xx_HAL_Driver/Src/stm32l4xx_hal_uart_ex.c ****   
 593:Drivers/STM32L4xx_HAL_Driver/Src/stm32l4xx_hal_uart_ex.c ****   return HAL_OK;  
 594:Drivers/STM32L4xx_HAL_Driver/Src/stm32l4xx_hal_uart_ex.c **** }
 595:Drivers/STM32L4xx_HAL_Driver/Src/stm32l4xx_hal_uart_ex.c **** 
 596:Drivers/STM32L4xx_HAL_Driver/Src/stm32l4xx_hal_uart_ex.c **** /**
 597:Drivers/STM32L4xx_HAL_Driver/Src/stm32l4xx_hal_uart_ex.c ****   * @brief  Configure the Slave Select input pin (NSS).
 598:Drivers/STM32L4xx_HAL_Driver/Src/stm32l4xx_hal_uart_ex.c ****   * @note Software NSS management: SPI slave will always be selected and NSS
 599:Drivers/STM32L4xx_HAL_Driver/Src/stm32l4xx_hal_uart_ex.c ****   *       input pin will be ignored.
 600:Drivers/STM32L4xx_HAL_Driver/Src/stm32l4xx_hal_uart_ex.c ****   * @note Hardware NSS management: the SPI slave selection depends on NSS
 601:Drivers/STM32L4xx_HAL_Driver/Src/stm32l4xx_hal_uart_ex.c ****   *       input pin. The slave is selected when NSS is low and deselected when
ARM GAS  /tmp/ccpYhBeZ.s 			page 12


 602:Drivers/STM32L4xx_HAL_Driver/Src/stm32l4xx_hal_uart_ex.c ****   *       NSS is high.
 603:Drivers/STM32L4xx_HAL_Driver/Src/stm32l4xx_hal_uart_ex.c ****   * @param huart      UART handle.
 604:Drivers/STM32L4xx_HAL_Driver/Src/stm32l4xx_hal_uart_ex.c ****   * @param NSSConfig   NSS configuration.
 605:Drivers/STM32L4xx_HAL_Driver/Src/stm32l4xx_hal_uart_ex.c ****   *          This parameter can be one of the following values:
 606:Drivers/STM32L4xx_HAL_Driver/Src/stm32l4xx_hal_uart_ex.c ****   *            @arg @ref UART_NSS_HARD
 607:Drivers/STM32L4xx_HAL_Driver/Src/stm32l4xx_hal_uart_ex.c ****   *            @arg @ref UART_NSS_SOFT
 608:Drivers/STM32L4xx_HAL_Driver/Src/stm32l4xx_hal_uart_ex.c ****   * @retval HAL status
 609:Drivers/STM32L4xx_HAL_Driver/Src/stm32l4xx_hal_uart_ex.c ****   */
 610:Drivers/STM32L4xx_HAL_Driver/Src/stm32l4xx_hal_uart_ex.c **** HAL_StatusTypeDef HAL_UARTEx_ConfigNSS(UART_HandleTypeDef *huart, uint32_t NSSConfig)
 611:Drivers/STM32L4xx_HAL_Driver/Src/stm32l4xx_hal_uart_ex.c **** {
 612:Drivers/STM32L4xx_HAL_Driver/Src/stm32l4xx_hal_uart_ex.c ****   uint32_t tmpcr1 = 0;
 613:Drivers/STM32L4xx_HAL_Driver/Src/stm32l4xx_hal_uart_ex.c **** 
 614:Drivers/STM32L4xx_HAL_Driver/Src/stm32l4xx_hal_uart_ex.c ****   /* Check parameters */
 615:Drivers/STM32L4xx_HAL_Driver/Src/stm32l4xx_hal_uart_ex.c ****   assert_param(IS_UART_SPI_SLAVE_INSTANCE(huart->Instance));
 616:Drivers/STM32L4xx_HAL_Driver/Src/stm32l4xx_hal_uart_ex.c ****   assert_param(IS_UART_NSS(NSSConfig));
 617:Drivers/STM32L4xx_HAL_Driver/Src/stm32l4xx_hal_uart_ex.c ****   
 618:Drivers/STM32L4xx_HAL_Driver/Src/stm32l4xx_hal_uart_ex.c ****   /* Process Locked */
 619:Drivers/STM32L4xx_HAL_Driver/Src/stm32l4xx_hal_uart_ex.c ****   __HAL_LOCK(huart);
 620:Drivers/STM32L4xx_HAL_Driver/Src/stm32l4xx_hal_uart_ex.c ****   
 621:Drivers/STM32L4xx_HAL_Driver/Src/stm32l4xx_hal_uart_ex.c ****   huart->gState = HAL_UART_STATE_BUSY;
 622:Drivers/STM32L4xx_HAL_Driver/Src/stm32l4xx_hal_uart_ex.c ****   
 623:Drivers/STM32L4xx_HAL_Driver/Src/stm32l4xx_hal_uart_ex.c ****   /* Save actual UART configuration */
 624:Drivers/STM32L4xx_HAL_Driver/Src/stm32l4xx_hal_uart_ex.c ****   tmpcr1 = READ_REG(huart->Instance->CR1);
 625:Drivers/STM32L4xx_HAL_Driver/Src/stm32l4xx_hal_uart_ex.c ****   
 626:Drivers/STM32L4xx_HAL_Driver/Src/stm32l4xx_hal_uart_ex.c ****   /* Disable UART */
 627:Drivers/STM32L4xx_HAL_Driver/Src/stm32l4xx_hal_uart_ex.c ****   __HAL_UART_DISABLE(huart);
 628:Drivers/STM32L4xx_HAL_Driver/Src/stm32l4xx_hal_uart_ex.c **** 
 629:Drivers/STM32L4xx_HAL_Driver/Src/stm32l4xx_hal_uart_ex.c ****   /* Program DIS_NSS bit in the USART_CR2 register */
 630:Drivers/STM32L4xx_HAL_Driver/Src/stm32l4xx_hal_uart_ex.c ****   MODIFY_REG(huart->Instance->CR2, USART_CR2_DIS_NSS, NSSConfig);
 631:Drivers/STM32L4xx_HAL_Driver/Src/stm32l4xx_hal_uart_ex.c ****   
 632:Drivers/STM32L4xx_HAL_Driver/Src/stm32l4xx_hal_uart_ex.c ****   /* Restore UART configuration */
 633:Drivers/STM32L4xx_HAL_Driver/Src/stm32l4xx_hal_uart_ex.c ****   WRITE_REG(huart->Instance->CR1, tmpcr1);
 634:Drivers/STM32L4xx_HAL_Driver/Src/stm32l4xx_hal_uart_ex.c ****  
 635:Drivers/STM32L4xx_HAL_Driver/Src/stm32l4xx_hal_uart_ex.c ****   huart->gState = HAL_UART_STATE_READY;
 636:Drivers/STM32L4xx_HAL_Driver/Src/stm32l4xx_hal_uart_ex.c ****   
 637:Drivers/STM32L4xx_HAL_Driver/Src/stm32l4xx_hal_uart_ex.c ****   /* Process Unlocked */
 638:Drivers/STM32L4xx_HAL_Driver/Src/stm32l4xx_hal_uart_ex.c ****   __HAL_UNLOCK(huart);
 639:Drivers/STM32L4xx_HAL_Driver/Src/stm32l4xx_hal_uart_ex.c **** 
 640:Drivers/STM32L4xx_HAL_Driver/Src/stm32l4xx_hal_uart_ex.c ****   return HAL_OK;
 641:Drivers/STM32L4xx_HAL_Driver/Src/stm32l4xx_hal_uart_ex.c **** }
 642:Drivers/STM32L4xx_HAL_Driver/Src/stm32l4xx_hal_uart_ex.c **** #endif
 643:Drivers/STM32L4xx_HAL_Driver/Src/stm32l4xx_hal_uart_ex.c **** 
 644:Drivers/STM32L4xx_HAL_Driver/Src/stm32l4xx_hal_uart_ex.c **** #if defined(USART_CR1_FIFOEN)
 645:Drivers/STM32L4xx_HAL_Driver/Src/stm32l4xx_hal_uart_ex.c **** /**
 646:Drivers/STM32L4xx_HAL_Driver/Src/stm32l4xx_hal_uart_ex.c ****   * @brief  Enable the FIFO mode.
 647:Drivers/STM32L4xx_HAL_Driver/Src/stm32l4xx_hal_uart_ex.c ****   * @param huart      UART handle.
 648:Drivers/STM32L4xx_HAL_Driver/Src/stm32l4xx_hal_uart_ex.c ****   * @retval HAL status
 649:Drivers/STM32L4xx_HAL_Driver/Src/stm32l4xx_hal_uart_ex.c ****   */
 650:Drivers/STM32L4xx_HAL_Driver/Src/stm32l4xx_hal_uart_ex.c **** HAL_StatusTypeDef HAL_UARTEx_EnableFifoMode(UART_HandleTypeDef *huart)
 651:Drivers/STM32L4xx_HAL_Driver/Src/stm32l4xx_hal_uart_ex.c **** {
 652:Drivers/STM32L4xx_HAL_Driver/Src/stm32l4xx_hal_uart_ex.c ****   uint32_t tmpcr1 = 0;
 653:Drivers/STM32L4xx_HAL_Driver/Src/stm32l4xx_hal_uart_ex.c ****   
 654:Drivers/STM32L4xx_HAL_Driver/Src/stm32l4xx_hal_uart_ex.c ****   /* Check parameters */
 655:Drivers/STM32L4xx_HAL_Driver/Src/stm32l4xx_hal_uart_ex.c ****   assert_param(IS_UART_FIFO_INSTANCE(huart->Instance));
 656:Drivers/STM32L4xx_HAL_Driver/Src/stm32l4xx_hal_uart_ex.c **** 
 657:Drivers/STM32L4xx_HAL_Driver/Src/stm32l4xx_hal_uart_ex.c ****   /* Process Locked */
 658:Drivers/STM32L4xx_HAL_Driver/Src/stm32l4xx_hal_uart_ex.c ****   __HAL_LOCK(huart);
ARM GAS  /tmp/ccpYhBeZ.s 			page 13


 659:Drivers/STM32L4xx_HAL_Driver/Src/stm32l4xx_hal_uart_ex.c ****   
 660:Drivers/STM32L4xx_HAL_Driver/Src/stm32l4xx_hal_uart_ex.c ****   huart->gState = HAL_UART_STATE_BUSY;
 661:Drivers/STM32L4xx_HAL_Driver/Src/stm32l4xx_hal_uart_ex.c ****   
 662:Drivers/STM32L4xx_HAL_Driver/Src/stm32l4xx_hal_uart_ex.c ****   /* Save actual UART configuration */
 663:Drivers/STM32L4xx_HAL_Driver/Src/stm32l4xx_hal_uart_ex.c ****   tmpcr1 = READ_REG(huart->Instance->CR1);
 664:Drivers/STM32L4xx_HAL_Driver/Src/stm32l4xx_hal_uart_ex.c ****   
 665:Drivers/STM32L4xx_HAL_Driver/Src/stm32l4xx_hal_uart_ex.c ****   /* Disable UART */
 666:Drivers/STM32L4xx_HAL_Driver/Src/stm32l4xx_hal_uart_ex.c ****   __HAL_UART_DISABLE(huart);
 667:Drivers/STM32L4xx_HAL_Driver/Src/stm32l4xx_hal_uart_ex.c ****   
 668:Drivers/STM32L4xx_HAL_Driver/Src/stm32l4xx_hal_uart_ex.c ****   /* Enable FIFO mode */
 669:Drivers/STM32L4xx_HAL_Driver/Src/stm32l4xx_hal_uart_ex.c ****   SET_BIT(tmpcr1, USART_CR1_FIFOEN);
 670:Drivers/STM32L4xx_HAL_Driver/Src/stm32l4xx_hal_uart_ex.c ****   huart->FifoMode = UART_FIFOMODE_ENABLE;
 671:Drivers/STM32L4xx_HAL_Driver/Src/stm32l4xx_hal_uart_ex.c ****   
 672:Drivers/STM32L4xx_HAL_Driver/Src/stm32l4xx_hal_uart_ex.c ****   /* Restore UART configuration */
 673:Drivers/STM32L4xx_HAL_Driver/Src/stm32l4xx_hal_uart_ex.c ****   WRITE_REG(huart->Instance->CR1, tmpcr1);
 674:Drivers/STM32L4xx_HAL_Driver/Src/stm32l4xx_hal_uart_ex.c ****   
 675:Drivers/STM32L4xx_HAL_Driver/Src/stm32l4xx_hal_uart_ex.c ****   /* Determine the number of data to process during RX/TX ISR execution */
 676:Drivers/STM32L4xx_HAL_Driver/Src/stm32l4xx_hal_uart_ex.c ****   UARTEx_SetNbDataToProcess(huart);
 677:Drivers/STM32L4xx_HAL_Driver/Src/stm32l4xx_hal_uart_ex.c ****   
 678:Drivers/STM32L4xx_HAL_Driver/Src/stm32l4xx_hal_uart_ex.c ****   huart->gState = HAL_UART_STATE_READY;
 679:Drivers/STM32L4xx_HAL_Driver/Src/stm32l4xx_hal_uart_ex.c ****   
 680:Drivers/STM32L4xx_HAL_Driver/Src/stm32l4xx_hal_uart_ex.c ****   /* Process Unlocked */
 681:Drivers/STM32L4xx_HAL_Driver/Src/stm32l4xx_hal_uart_ex.c ****   __HAL_UNLOCK(huart);
 682:Drivers/STM32L4xx_HAL_Driver/Src/stm32l4xx_hal_uart_ex.c ****  
 683:Drivers/STM32L4xx_HAL_Driver/Src/stm32l4xx_hal_uart_ex.c ****   return HAL_OK;
 684:Drivers/STM32L4xx_HAL_Driver/Src/stm32l4xx_hal_uart_ex.c **** }
 685:Drivers/STM32L4xx_HAL_Driver/Src/stm32l4xx_hal_uart_ex.c **** 
 686:Drivers/STM32L4xx_HAL_Driver/Src/stm32l4xx_hal_uart_ex.c **** /**
 687:Drivers/STM32L4xx_HAL_Driver/Src/stm32l4xx_hal_uart_ex.c ****   * @brief  Disable the FIFO mode.
 688:Drivers/STM32L4xx_HAL_Driver/Src/stm32l4xx_hal_uart_ex.c ****   * @param huart      UART handle.
 689:Drivers/STM32L4xx_HAL_Driver/Src/stm32l4xx_hal_uart_ex.c ****   * @retval HAL status
 690:Drivers/STM32L4xx_HAL_Driver/Src/stm32l4xx_hal_uart_ex.c ****   */
 691:Drivers/STM32L4xx_HAL_Driver/Src/stm32l4xx_hal_uart_ex.c **** HAL_StatusTypeDef HAL_UARTEx_DisableFifoMode(UART_HandleTypeDef *huart)
 692:Drivers/STM32L4xx_HAL_Driver/Src/stm32l4xx_hal_uart_ex.c **** {
 693:Drivers/STM32L4xx_HAL_Driver/Src/stm32l4xx_hal_uart_ex.c ****   uint32_t tmpcr1 = 0;
 694:Drivers/STM32L4xx_HAL_Driver/Src/stm32l4xx_hal_uart_ex.c **** 
 695:Drivers/STM32L4xx_HAL_Driver/Src/stm32l4xx_hal_uart_ex.c ****   /* Check parameters */
 696:Drivers/STM32L4xx_HAL_Driver/Src/stm32l4xx_hal_uart_ex.c ****   assert_param(IS_UART_FIFO_INSTANCE(huart->Instance));
 697:Drivers/STM32L4xx_HAL_Driver/Src/stm32l4xx_hal_uart_ex.c **** 
 698:Drivers/STM32L4xx_HAL_Driver/Src/stm32l4xx_hal_uart_ex.c ****   /* Process Locked */
 699:Drivers/STM32L4xx_HAL_Driver/Src/stm32l4xx_hal_uart_ex.c ****   __HAL_LOCK(huart);
 700:Drivers/STM32L4xx_HAL_Driver/Src/stm32l4xx_hal_uart_ex.c ****   
 701:Drivers/STM32L4xx_HAL_Driver/Src/stm32l4xx_hal_uart_ex.c ****   huart->gState = HAL_UART_STATE_BUSY;
 702:Drivers/STM32L4xx_HAL_Driver/Src/stm32l4xx_hal_uart_ex.c ****   
 703:Drivers/STM32L4xx_HAL_Driver/Src/stm32l4xx_hal_uart_ex.c ****   /* Save actual UART configuration */
 704:Drivers/STM32L4xx_HAL_Driver/Src/stm32l4xx_hal_uart_ex.c ****   tmpcr1 = READ_REG(huart->Instance->CR1);
 705:Drivers/STM32L4xx_HAL_Driver/Src/stm32l4xx_hal_uart_ex.c ****   
 706:Drivers/STM32L4xx_HAL_Driver/Src/stm32l4xx_hal_uart_ex.c ****   /* Disable UART */
 707:Drivers/STM32L4xx_HAL_Driver/Src/stm32l4xx_hal_uart_ex.c ****   __HAL_UART_DISABLE(huart);
 708:Drivers/STM32L4xx_HAL_Driver/Src/stm32l4xx_hal_uart_ex.c ****   
 709:Drivers/STM32L4xx_HAL_Driver/Src/stm32l4xx_hal_uart_ex.c ****   /* Enable FIFO mode */
 710:Drivers/STM32L4xx_HAL_Driver/Src/stm32l4xx_hal_uart_ex.c ****   CLEAR_BIT(tmpcr1, USART_CR1_FIFOEN);
 711:Drivers/STM32L4xx_HAL_Driver/Src/stm32l4xx_hal_uart_ex.c ****   huart->FifoMode = UART_FIFOMODE_DISABLE;
 712:Drivers/STM32L4xx_HAL_Driver/Src/stm32l4xx_hal_uart_ex.c ****   
 713:Drivers/STM32L4xx_HAL_Driver/Src/stm32l4xx_hal_uart_ex.c ****   /* Restore UART configuration */
 714:Drivers/STM32L4xx_HAL_Driver/Src/stm32l4xx_hal_uart_ex.c ****   WRITE_REG(huart->Instance->CR1, tmpcr1);
 715:Drivers/STM32L4xx_HAL_Driver/Src/stm32l4xx_hal_uart_ex.c ****   
ARM GAS  /tmp/ccpYhBeZ.s 			page 14


 716:Drivers/STM32L4xx_HAL_Driver/Src/stm32l4xx_hal_uart_ex.c ****   huart->gState = HAL_UART_STATE_READY;
 717:Drivers/STM32L4xx_HAL_Driver/Src/stm32l4xx_hal_uart_ex.c ****   
 718:Drivers/STM32L4xx_HAL_Driver/Src/stm32l4xx_hal_uart_ex.c ****   /* Process Unlocked */
 719:Drivers/STM32L4xx_HAL_Driver/Src/stm32l4xx_hal_uart_ex.c ****   __HAL_UNLOCK(huart);
 720:Drivers/STM32L4xx_HAL_Driver/Src/stm32l4xx_hal_uart_ex.c ****  
 721:Drivers/STM32L4xx_HAL_Driver/Src/stm32l4xx_hal_uart_ex.c ****   return HAL_OK;
 722:Drivers/STM32L4xx_HAL_Driver/Src/stm32l4xx_hal_uart_ex.c **** }
 723:Drivers/STM32L4xx_HAL_Driver/Src/stm32l4xx_hal_uart_ex.c **** 
 724:Drivers/STM32L4xx_HAL_Driver/Src/stm32l4xx_hal_uart_ex.c **** /**
 725:Drivers/STM32L4xx_HAL_Driver/Src/stm32l4xx_hal_uart_ex.c ****   * @brief  Set the TXFIFO threshold.
 726:Drivers/STM32L4xx_HAL_Driver/Src/stm32l4xx_hal_uart_ex.c ****   * @param huart      UART handle.
 727:Drivers/STM32L4xx_HAL_Driver/Src/stm32l4xx_hal_uart_ex.c ****   * @param Threshold  TX FIFO threshold value
 728:Drivers/STM32L4xx_HAL_Driver/Src/stm32l4xx_hal_uart_ex.c ****   *          This parameter can be one of the following values:
 729:Drivers/STM32L4xx_HAL_Driver/Src/stm32l4xx_hal_uart_ex.c ****   *            @arg @ref UART_TXFIFO_THRESHOLD_1_8
 730:Drivers/STM32L4xx_HAL_Driver/Src/stm32l4xx_hal_uart_ex.c ****   *            @arg @ref UART_TXFIFO_THRESHOLD_1_4
 731:Drivers/STM32L4xx_HAL_Driver/Src/stm32l4xx_hal_uart_ex.c ****   *            @arg @ref UART_TXFIFO_THRESHOLD_1_2
 732:Drivers/STM32L4xx_HAL_Driver/Src/stm32l4xx_hal_uart_ex.c ****   *            @arg @ref UART_TXFIFO_THRESHOLD_3_4
 733:Drivers/STM32L4xx_HAL_Driver/Src/stm32l4xx_hal_uart_ex.c ****   *            @arg @ref UART_TXFIFO_THRESHOLD_7_8
 734:Drivers/STM32L4xx_HAL_Driver/Src/stm32l4xx_hal_uart_ex.c ****   *            @arg @ref UART_TXFIFO_THRESHOLD_8_8
 735:Drivers/STM32L4xx_HAL_Driver/Src/stm32l4xx_hal_uart_ex.c ****   * @retval HAL status
 736:Drivers/STM32L4xx_HAL_Driver/Src/stm32l4xx_hal_uart_ex.c ****   */
 737:Drivers/STM32L4xx_HAL_Driver/Src/stm32l4xx_hal_uart_ex.c **** HAL_StatusTypeDef HAL_UARTEx_SetTxFifoThreshold(UART_HandleTypeDef *huart, uint32_t Threshold)
 738:Drivers/STM32L4xx_HAL_Driver/Src/stm32l4xx_hal_uart_ex.c **** {
 739:Drivers/STM32L4xx_HAL_Driver/Src/stm32l4xx_hal_uart_ex.c ****   uint32_t tmpcr1 = 0;
 740:Drivers/STM32L4xx_HAL_Driver/Src/stm32l4xx_hal_uart_ex.c ****   
 741:Drivers/STM32L4xx_HAL_Driver/Src/stm32l4xx_hal_uart_ex.c ****   /* Check parameters */
 742:Drivers/STM32L4xx_HAL_Driver/Src/stm32l4xx_hal_uart_ex.c ****   assert_param(IS_UART_FIFO_INSTANCE(huart->Instance));
 743:Drivers/STM32L4xx_HAL_Driver/Src/stm32l4xx_hal_uart_ex.c ****   assert_param(IS_UART_TXFIFO_THRESHOLD(Threshold));
 744:Drivers/STM32L4xx_HAL_Driver/Src/stm32l4xx_hal_uart_ex.c **** 
 745:Drivers/STM32L4xx_HAL_Driver/Src/stm32l4xx_hal_uart_ex.c ****   /* Process Locked */
 746:Drivers/STM32L4xx_HAL_Driver/Src/stm32l4xx_hal_uart_ex.c ****   __HAL_LOCK(huart);
 747:Drivers/STM32L4xx_HAL_Driver/Src/stm32l4xx_hal_uart_ex.c ****   
 748:Drivers/STM32L4xx_HAL_Driver/Src/stm32l4xx_hal_uart_ex.c ****   huart->gState = HAL_UART_STATE_BUSY;
 749:Drivers/STM32L4xx_HAL_Driver/Src/stm32l4xx_hal_uart_ex.c ****   
 750:Drivers/STM32L4xx_HAL_Driver/Src/stm32l4xx_hal_uart_ex.c ****   /* Save actual UART configuration */
 751:Drivers/STM32L4xx_HAL_Driver/Src/stm32l4xx_hal_uart_ex.c ****   tmpcr1 = READ_REG(huart->Instance->CR1);
 752:Drivers/STM32L4xx_HAL_Driver/Src/stm32l4xx_hal_uart_ex.c ****   
 753:Drivers/STM32L4xx_HAL_Driver/Src/stm32l4xx_hal_uart_ex.c ****   /* Disable UART */
 754:Drivers/STM32L4xx_HAL_Driver/Src/stm32l4xx_hal_uart_ex.c ****   __HAL_UART_DISABLE(huart);
 755:Drivers/STM32L4xx_HAL_Driver/Src/stm32l4xx_hal_uart_ex.c ****   
 756:Drivers/STM32L4xx_HAL_Driver/Src/stm32l4xx_hal_uart_ex.c ****   /* Update TX threshold configuration */
 757:Drivers/STM32L4xx_HAL_Driver/Src/stm32l4xx_hal_uart_ex.c ****   MODIFY_REG(huart->Instance->CR3, USART_CR3_TXFTCFG, Threshold);
 758:Drivers/STM32L4xx_HAL_Driver/Src/stm32l4xx_hal_uart_ex.c ****   
 759:Drivers/STM32L4xx_HAL_Driver/Src/stm32l4xx_hal_uart_ex.c ****   /* Determine the number of data to process during RX/TX ISR execution */
 760:Drivers/STM32L4xx_HAL_Driver/Src/stm32l4xx_hal_uart_ex.c ****   UARTEx_SetNbDataToProcess(huart);
 761:Drivers/STM32L4xx_HAL_Driver/Src/stm32l4xx_hal_uart_ex.c ****   
 762:Drivers/STM32L4xx_HAL_Driver/Src/stm32l4xx_hal_uart_ex.c ****   /* Restore UART configuration */
 763:Drivers/STM32L4xx_HAL_Driver/Src/stm32l4xx_hal_uart_ex.c ****   WRITE_REG(huart->Instance->CR1, tmpcr1);
 764:Drivers/STM32L4xx_HAL_Driver/Src/stm32l4xx_hal_uart_ex.c ****   
 765:Drivers/STM32L4xx_HAL_Driver/Src/stm32l4xx_hal_uart_ex.c ****   huart->gState = HAL_UART_STATE_READY;
 766:Drivers/STM32L4xx_HAL_Driver/Src/stm32l4xx_hal_uart_ex.c ****   
 767:Drivers/STM32L4xx_HAL_Driver/Src/stm32l4xx_hal_uart_ex.c ****   /* Process Unlocked */
 768:Drivers/STM32L4xx_HAL_Driver/Src/stm32l4xx_hal_uart_ex.c ****   __HAL_UNLOCK(huart);
 769:Drivers/STM32L4xx_HAL_Driver/Src/stm32l4xx_hal_uart_ex.c ****   
 770:Drivers/STM32L4xx_HAL_Driver/Src/stm32l4xx_hal_uart_ex.c ****   return HAL_OK;
 771:Drivers/STM32L4xx_HAL_Driver/Src/stm32l4xx_hal_uart_ex.c **** }
 772:Drivers/STM32L4xx_HAL_Driver/Src/stm32l4xx_hal_uart_ex.c **** 
ARM GAS  /tmp/ccpYhBeZ.s 			page 15


 773:Drivers/STM32L4xx_HAL_Driver/Src/stm32l4xx_hal_uart_ex.c **** /**
 774:Drivers/STM32L4xx_HAL_Driver/Src/stm32l4xx_hal_uart_ex.c ****   * @brief  Set the RXFIFO threshold.
 775:Drivers/STM32L4xx_HAL_Driver/Src/stm32l4xx_hal_uart_ex.c ****   * @param huart      UART handle.
 776:Drivers/STM32L4xx_HAL_Driver/Src/stm32l4xx_hal_uart_ex.c ****   * @param Threshold  RX FIFO threshold value
 777:Drivers/STM32L4xx_HAL_Driver/Src/stm32l4xx_hal_uart_ex.c ****   *          This parameter can be one of the following values:
 778:Drivers/STM32L4xx_HAL_Driver/Src/stm32l4xx_hal_uart_ex.c ****   *            @arg @ref UART_RXFIFO_THRESHOLD_1_8
 779:Drivers/STM32L4xx_HAL_Driver/Src/stm32l4xx_hal_uart_ex.c ****   *            @arg @ref UART_RXFIFO_THRESHOLD_1_4
 780:Drivers/STM32L4xx_HAL_Driver/Src/stm32l4xx_hal_uart_ex.c ****   *            @arg @ref UART_RXFIFO_THRESHOLD_1_2
 781:Drivers/STM32L4xx_HAL_Driver/Src/stm32l4xx_hal_uart_ex.c ****   *            @arg @ref UART_RXFIFO_THRESHOLD_3_4
 782:Drivers/STM32L4xx_HAL_Driver/Src/stm32l4xx_hal_uart_ex.c ****   *            @arg @ref UART_RXFIFO_THRESHOLD_7_8
 783:Drivers/STM32L4xx_HAL_Driver/Src/stm32l4xx_hal_uart_ex.c ****   *            @arg @ref UART_RXFIFO_THRESHOLD_8_8
 784:Drivers/STM32L4xx_HAL_Driver/Src/stm32l4xx_hal_uart_ex.c ****   * @retval HAL status
 785:Drivers/STM32L4xx_HAL_Driver/Src/stm32l4xx_hal_uart_ex.c ****   */
 786:Drivers/STM32L4xx_HAL_Driver/Src/stm32l4xx_hal_uart_ex.c **** HAL_StatusTypeDef HAL_UARTEx_SetRxFifoThreshold(UART_HandleTypeDef *huart, uint32_t Threshold)
 787:Drivers/STM32L4xx_HAL_Driver/Src/stm32l4xx_hal_uart_ex.c **** {
 788:Drivers/STM32L4xx_HAL_Driver/Src/stm32l4xx_hal_uart_ex.c ****   uint32_t tmpcr1 = 0;
 789:Drivers/STM32L4xx_HAL_Driver/Src/stm32l4xx_hal_uart_ex.c ****   
 790:Drivers/STM32L4xx_HAL_Driver/Src/stm32l4xx_hal_uart_ex.c ****   /* Check the parameters */
 791:Drivers/STM32L4xx_HAL_Driver/Src/stm32l4xx_hal_uart_ex.c ****   assert_param(IS_UART_FIFO_INSTANCE(huart->Instance));
 792:Drivers/STM32L4xx_HAL_Driver/Src/stm32l4xx_hal_uart_ex.c ****   assert_param(IS_UART_RXFIFO_THRESHOLD(Threshold));
 793:Drivers/STM32L4xx_HAL_Driver/Src/stm32l4xx_hal_uart_ex.c **** 
 794:Drivers/STM32L4xx_HAL_Driver/Src/stm32l4xx_hal_uart_ex.c ****   /* Process Locked */
 795:Drivers/STM32L4xx_HAL_Driver/Src/stm32l4xx_hal_uart_ex.c ****   __HAL_LOCK(huart);
 796:Drivers/STM32L4xx_HAL_Driver/Src/stm32l4xx_hal_uart_ex.c ****   
 797:Drivers/STM32L4xx_HAL_Driver/Src/stm32l4xx_hal_uart_ex.c ****   huart->gState = HAL_UART_STATE_BUSY;
 798:Drivers/STM32L4xx_HAL_Driver/Src/stm32l4xx_hal_uart_ex.c ****   
 799:Drivers/STM32L4xx_HAL_Driver/Src/stm32l4xx_hal_uart_ex.c ****   /* Save actual UART configuration */
 800:Drivers/STM32L4xx_HAL_Driver/Src/stm32l4xx_hal_uart_ex.c ****   tmpcr1 = READ_REG(huart->Instance->CR1);
 801:Drivers/STM32L4xx_HAL_Driver/Src/stm32l4xx_hal_uart_ex.c ****   
 802:Drivers/STM32L4xx_HAL_Driver/Src/stm32l4xx_hal_uart_ex.c ****   /* Disable UART */
 803:Drivers/STM32L4xx_HAL_Driver/Src/stm32l4xx_hal_uart_ex.c ****   __HAL_UART_DISABLE(huart);
 804:Drivers/STM32L4xx_HAL_Driver/Src/stm32l4xx_hal_uart_ex.c ****   
 805:Drivers/STM32L4xx_HAL_Driver/Src/stm32l4xx_hal_uart_ex.c ****   /* Update RX threshold configuration */
 806:Drivers/STM32L4xx_HAL_Driver/Src/stm32l4xx_hal_uart_ex.c ****   MODIFY_REG(huart->Instance->CR3, USART_CR3_RXFTCFG, Threshold);
 807:Drivers/STM32L4xx_HAL_Driver/Src/stm32l4xx_hal_uart_ex.c ****   
 808:Drivers/STM32L4xx_HAL_Driver/Src/stm32l4xx_hal_uart_ex.c ****   /* Determine the number of data to process during RX/TX ISR execution */
 809:Drivers/STM32L4xx_HAL_Driver/Src/stm32l4xx_hal_uart_ex.c ****   UARTEx_SetNbDataToProcess(huart);
 810:Drivers/STM32L4xx_HAL_Driver/Src/stm32l4xx_hal_uart_ex.c ****   
 811:Drivers/STM32L4xx_HAL_Driver/Src/stm32l4xx_hal_uart_ex.c ****   /* Restore UART configuration */
 812:Drivers/STM32L4xx_HAL_Driver/Src/stm32l4xx_hal_uart_ex.c ****   WRITE_REG(huart->Instance->CR1, tmpcr1);
 813:Drivers/STM32L4xx_HAL_Driver/Src/stm32l4xx_hal_uart_ex.c ****   
 814:Drivers/STM32L4xx_HAL_Driver/Src/stm32l4xx_hal_uart_ex.c ****   huart->gState = HAL_UART_STATE_READY;
 815:Drivers/STM32L4xx_HAL_Driver/Src/stm32l4xx_hal_uart_ex.c ****   
 816:Drivers/STM32L4xx_HAL_Driver/Src/stm32l4xx_hal_uart_ex.c ****   /* Process Unlocked */
 817:Drivers/STM32L4xx_HAL_Driver/Src/stm32l4xx_hal_uart_ex.c ****   __HAL_UNLOCK(huart);
 818:Drivers/STM32L4xx_HAL_Driver/Src/stm32l4xx_hal_uart_ex.c ****   
 819:Drivers/STM32L4xx_HAL_Driver/Src/stm32l4xx_hal_uart_ex.c ****   return HAL_OK;
 820:Drivers/STM32L4xx_HAL_Driver/Src/stm32l4xx_hal_uart_ex.c **** }
 821:Drivers/STM32L4xx_HAL_Driver/Src/stm32l4xx_hal_uart_ex.c **** #endif
 822:Drivers/STM32L4xx_HAL_Driver/Src/stm32l4xx_hal_uart_ex.c **** 
 823:Drivers/STM32L4xx_HAL_Driver/Src/stm32l4xx_hal_uart_ex.c **** /**
 824:Drivers/STM32L4xx_HAL_Driver/Src/stm32l4xx_hal_uart_ex.c ****   * @}
 825:Drivers/STM32L4xx_HAL_Driver/Src/stm32l4xx_hal_uart_ex.c ****   */
 826:Drivers/STM32L4xx_HAL_Driver/Src/stm32l4xx_hal_uart_ex.c **** 
 827:Drivers/STM32L4xx_HAL_Driver/Src/stm32l4xx_hal_uart_ex.c **** /**
 828:Drivers/STM32L4xx_HAL_Driver/Src/stm32l4xx_hal_uart_ex.c ****   * @}
 829:Drivers/STM32L4xx_HAL_Driver/Src/stm32l4xx_hal_uart_ex.c ****   */
ARM GAS  /tmp/ccpYhBeZ.s 			page 16


 830:Drivers/STM32L4xx_HAL_Driver/Src/stm32l4xx_hal_uart_ex.c **** 
 831:Drivers/STM32L4xx_HAL_Driver/Src/stm32l4xx_hal_uart_ex.c **** /** @addtogroup UARTEx_Private_Functions
 832:Drivers/STM32L4xx_HAL_Driver/Src/stm32l4xx_hal_uart_ex.c ****   * @{
 833:Drivers/STM32L4xx_HAL_Driver/Src/stm32l4xx_hal_uart_ex.c ****   */
 834:Drivers/STM32L4xx_HAL_Driver/Src/stm32l4xx_hal_uart_ex.c **** 
 835:Drivers/STM32L4xx_HAL_Driver/Src/stm32l4xx_hal_uart_ex.c **** /**
 836:Drivers/STM32L4xx_HAL_Driver/Src/stm32l4xx_hal_uart_ex.c ****   * @brief Initialize the UART wake-up from stop mode parameters when triggered by address detectio
 837:Drivers/STM32L4xx_HAL_Driver/Src/stm32l4xx_hal_uart_ex.c ****   * @param huart           UART handle.
 838:Drivers/STM32L4xx_HAL_Driver/Src/stm32l4xx_hal_uart_ex.c ****   * @param WakeUpSelection UART wake up from stop mode parameters.
 839:Drivers/STM32L4xx_HAL_Driver/Src/stm32l4xx_hal_uart_ex.c ****   * @retval None
 840:Drivers/STM32L4xx_HAL_Driver/Src/stm32l4xx_hal_uart_ex.c ****   */
 841:Drivers/STM32L4xx_HAL_Driver/Src/stm32l4xx_hal_uart_ex.c **** static void UARTEx_Wakeup_AddressConfig(UART_HandleTypeDef *huart, UART_WakeUpTypeDef WakeUpSelecti
 842:Drivers/STM32L4xx_HAL_Driver/Src/stm32l4xx_hal_uart_ex.c **** {
  28              		.loc 1 842 0
  29              		.cfi_startproc
  30              		@ args = 0, pretend = 0, frame = 8
  31              		@ frame_needed = 0, uses_anonymous_args = 0
  32              		@ link register save eliminated.
  33              	.LVL0:
  34 0000 82B0     		sub	sp, sp, #8
  35              	.LCFI0:
  36              		.cfi_def_cfa_offset 8
  37 0002 02AB     		add	r3, sp, #8
  38 0004 03E90600 		stmdb	r3, {r1, r2}
 843:Drivers/STM32L4xx_HAL_Driver/Src/stm32l4xx_hal_uart_ex.c ****   assert_param(IS_UART_ADDRESSLENGTH_DETECT(WakeUpSelection.AddressLength));
 844:Drivers/STM32L4xx_HAL_Driver/Src/stm32l4xx_hal_uart_ex.c ****   
 845:Drivers/STM32L4xx_HAL_Driver/Src/stm32l4xx_hal_uart_ex.c ****   /* Set the USART address length */
 846:Drivers/STM32L4xx_HAL_Driver/Src/stm32l4xx_hal_uart_ex.c ****   MODIFY_REG(huart->Instance->CR2, USART_CR2_ADDM7, WakeUpSelection.AddressLength);
  39              		.loc 1 846 0
  40 0008 0168     		ldr	r1, [r0]
  41 000a 4B68     		ldr	r3, [r1, #4]
  42 000c 23F01002 		bic	r2, r3, #16
  43 0010 BDF80430 		ldrh	r3, [sp, #4]
  44 0014 1343     		orrs	r3, r3, r2
  45 0016 4B60     		str	r3, [r1, #4]
 847:Drivers/STM32L4xx_HAL_Driver/Src/stm32l4xx_hal_uart_ex.c ****   
 848:Drivers/STM32L4xx_HAL_Driver/Src/stm32l4xx_hal_uart_ex.c ****   /* Set the USART address node */
 849:Drivers/STM32L4xx_HAL_Driver/Src/stm32l4xx_hal_uart_ex.c ****   MODIFY_REG(huart->Instance->CR2, USART_CR2_ADD, ((uint32_t)WakeUpSelection.Address << UART_CR2_AD
  46              		.loc 1 849 0
  47 0018 0268     		ldr	r2, [r0]
  48 001a 5368     		ldr	r3, [r2, #4]
  49 001c 23F07F43 		bic	r3, r3, #-16777216
  50 0020 9DF80610 		ldrb	r1, [sp, #6]	@ zero_extendqisi2
  51 0024 43EA0163 		orr	r3, r3, r1, lsl #24
  52 0028 5360     		str	r3, [r2, #4]
 850:Drivers/STM32L4xx_HAL_Driver/Src/stm32l4xx_hal_uart_ex.c **** }
  53              		.loc 1 850 0
  54 002a 02B0     		add	sp, sp, #8
  55              	.LCFI1:
  56              		.cfi_def_cfa_offset 0
  57              		@ sp needed
  58 002c 7047     		bx	lr
  59              		.cfi_endproc
  60              	.LFE131:
  62 002e 00BF     		.section	.text.HAL_RS485Ex_Init,"ax",%progbits
  63              		.align	2
  64              		.global	HAL_RS485Ex_Init
ARM GAS  /tmp/ccpYhBeZ.s 			page 17


  65              		.thumb
  66              		.thumb_func
  68              	HAL_RS485Ex_Init:
  69              	.LFB125:
 178:Drivers/STM32L4xx_HAL_Driver/Src/stm32l4xx_hal_uart_ex.c ****   uint32_t temp = 0x0;
  70              		.loc 1 178 0
  71              		.cfi_startproc
  72              		@ args = 0, pretend = 0, frame = 0
  73              		@ frame_needed = 0, uses_anonymous_args = 0
  74              	.LVL1:
 182:Drivers/STM32L4xx_HAL_Driver/Src/stm32l4xx_hal_uart_ex.c ****   {
  75              		.loc 1 182 0
  76 0000 0028     		cmp	r0, #0
  77 0002 3FD0     		beq	.L7
 178:Drivers/STM32L4xx_HAL_Driver/Src/stm32l4xx_hal_uart_ex.c ****   uint32_t temp = 0x0;
  78              		.loc 1 178 0
  79 0004 F8B5     		push	{r3, r4, r5, r6, r7, lr}
  80              	.LCFI2:
  81              		.cfi_def_cfa_offset 24
  82              		.cfi_offset 3, -24
  83              		.cfi_offset 4, -20
  84              		.cfi_offset 5, -16
  85              		.cfi_offset 6, -12
  86              		.cfi_offset 7, -8
  87              		.cfi_offset 14, -4
  88 0006 0446     		mov	r4, r0
  89 0008 1D46     		mov	r5, r3
  90 000a 1746     		mov	r7, r2
  91 000c 0E46     		mov	r6, r1
 198:Drivers/STM32L4xx_HAL_Driver/Src/stm32l4xx_hal_uart_ex.c ****   {
  92              		.loc 1 198 0
  93 000e 90F87130 		ldrb	r3, [r0, #113]	@ zero_extendqisi2
  94              	.LVL2:
  95 0012 13F0FF0F 		tst	r3, #255
  96 0016 04D1     		bne	.L5
 201:Drivers/STM32L4xx_HAL_Driver/Src/stm32l4xx_hal_uart_ex.c ****     
  97              		.loc 1 201 0
  98 0018 0023     		movs	r3, #0
  99 001a 80F87030 		strb	r3, [r0, #112]
 204:Drivers/STM32L4xx_HAL_Driver/Src/stm32l4xx_hal_uart_ex.c ****   }
 100              		.loc 1 204 0
 101 001e FFF7FEFF 		bl	HAL_UART_MspInit
 102              	.LVL3:
 103              	.L5:
 207:Drivers/STM32L4xx_HAL_Driver/Src/stm32l4xx_hal_uart_ex.c ****   
 104              		.loc 1 207 0
 105 0022 2423     		movs	r3, #36
 106 0024 84F87130 		strb	r3, [r4, #113]
 210:Drivers/STM32L4xx_HAL_Driver/Src/stm32l4xx_hal_uart_ex.c ****   
 107              		.loc 1 210 0
 108 0028 2268     		ldr	r2, [r4]
 109 002a 1368     		ldr	r3, [r2]
 110 002c 23F00103 		bic	r3, r3, #1
 111 0030 1360     		str	r3, [r2]
 213:Drivers/STM32L4xx_HAL_Driver/Src/stm32l4xx_hal_uart_ex.c ****   {
 112              		.loc 1 213 0
 113 0032 2046     		mov	r0, r4
ARM GAS  /tmp/ccpYhBeZ.s 			page 18


 114 0034 FFF7FEFF 		bl	UART_SetConfig
 115              	.LVL4:
 116 0038 0128     		cmp	r0, #1
 117 003a 25D0     		beq	.L4
 218:Drivers/STM32L4xx_HAL_Driver/Src/stm32l4xx_hal_uart_ex.c ****   {
 118              		.loc 1 218 0
 119 003c 636A     		ldr	r3, [r4, #36]
 120 003e 13B1     		cbz	r3, .L6
 220:Drivers/STM32L4xx_HAL_Driver/Src/stm32l4xx_hal_uart_ex.c ****   }
 121              		.loc 1 220 0
 122 0040 2046     		mov	r0, r4
 123 0042 FFF7FEFF 		bl	UART_AdvFeatureConfig
 124              	.LVL5:
 125              	.L6:
 224:Drivers/STM32L4xx_HAL_Driver/Src/stm32l4xx_hal_uart_ex.c ****   
 126              		.loc 1 224 0
 127 0046 2268     		ldr	r2, [r4]
 128 0048 9368     		ldr	r3, [r2, #8]
 129 004a 43F48043 		orr	r3, r3, #16384
 130 004e 9360     		str	r3, [r2, #8]
 227:Drivers/STM32L4xx_HAL_Driver/Src/stm32l4xx_hal_uart_ex.c ****   
 131              		.loc 1 227 0
 132 0050 2368     		ldr	r3, [r4]
 133 0052 9968     		ldr	r1, [r3, #8]
 134 0054 21F40041 		bic	r1, r1, #32768
 135 0058 0E43     		orrs	r6, r6, r1
 136              	.LVL6:
 137 005a 9E60     		str	r6, [r3, #8]
 138              	.LVL7:
 231:Drivers/STM32L4xx_HAL_Driver/Src/stm32l4xx_hal_uart_ex.c ****   MODIFY_REG(huart->Instance->CR1, (USART_CR1_DEDT|USART_CR1_DEAT), temp);
 139              		.loc 1 231 0
 140 005c 2D04     		lsls	r5, r5, #16
 141              	.LVL8:
 142 005e 45EA4752 		orr	r2, r5, r7, lsl #21
 143              	.LVL9:
 232:Drivers/STM32L4xx_HAL_Driver/Src/stm32l4xx_hal_uart_ex.c ****   
 144              		.loc 1 232 0
 145 0062 2368     		ldr	r3, [r4]
 146 0064 1D68     		ldr	r5, [r3]
 147 0066 25F07F75 		bic	r5, r5, #66846720
 148 006a 25F44035 		bic	r5, r5, #196608
 149 006e 1543     		orrs	r5, r5, r2
 150 0070 1D60     		str	r5, [r3]
 235:Drivers/STM32L4xx_HAL_Driver/Src/stm32l4xx_hal_uart_ex.c ****   
 151              		.loc 1 235 0
 152 0072 2268     		ldr	r2, [r4]
 153              	.LVL10:
 154 0074 1368     		ldr	r3, [r2]
 155 0076 43F00103 		orr	r3, r3, #1
 156 007a 1360     		str	r3, [r2]
 238:Drivers/STM32L4xx_HAL_Driver/Src/stm32l4xx_hal_uart_ex.c **** }
 157              		.loc 1 238 0
 158 007c 2046     		mov	r0, r4
 159 007e FFF7FEFF 		bl	UART_CheckIdleState
 160              	.LVL11:
 161 0082 F8BD     		pop	{r3, r4, r5, r6, r7, pc}
 162              	.LVL12:
ARM GAS  /tmp/ccpYhBeZ.s 			page 19


 163              	.L7:
 164              	.LCFI3:
 165              		.cfi_def_cfa_offset 0
 166              		.cfi_restore 3
 167              		.cfi_restore 4
 168              		.cfi_restore 5
 169              		.cfi_restore 6
 170              		.cfi_restore 7
 171              		.cfi_restore 14
 184:Drivers/STM32L4xx_HAL_Driver/Src/stm32l4xx_hal_uart_ex.c ****   }
 172              		.loc 1 184 0
 173 0084 0120     		movs	r0, #1
 174              	.LVL13:
 175 0086 7047     		bx	lr
 176              	.LVL14:
 177              	.L4:
 178              	.LCFI4:
 179              		.cfi_def_cfa_offset 24
 180              		.cfi_offset 3, -24
 181              		.cfi_offset 4, -20
 182              		.cfi_offset 5, -16
 183              		.cfi_offset 6, -12
 184              		.cfi_offset 7, -8
 185              		.cfi_offset 14, -4
 239:Drivers/STM32L4xx_HAL_Driver/Src/stm32l4xx_hal_uart_ex.c **** 
 186              		.loc 1 239 0
 187 0088 F8BD     		pop	{r3, r4, r5, r6, r7, pc}
 188              		.cfi_endproc
 189              	.LFE125:
 191 008a 00BF     		.section	.text.HAL_UARTEx_WakeupCallback,"ax",%progbits
 192              		.align	2
 193              		.weak	HAL_UARTEx_WakeupCallback
 194              		.thumb
 195              		.thumb_func
 197              	HAL_UARTEx_WakeupCallback:
 198              	.LFB126:
 272:Drivers/STM32L4xx_HAL_Driver/Src/stm32l4xx_hal_uart_ex.c ****   /* Prevent unused argument(s) compilation warning */
 199              		.loc 1 272 0
 200              		.cfi_startproc
 201              		@ args = 0, pretend = 0, frame = 0
 202              		@ frame_needed = 0, uses_anonymous_args = 0
 203              		@ link register save eliminated.
 204              	.LVL15:
 205 0000 7047     		bx	lr
 206              		.cfi_endproc
 207              	.LFE126:
 209 0002 00BF     		.section	.text.HAL_MultiProcessorEx_AddressLength_Set,"ax",%progbits
 210              		.align	2
 211              		.global	HAL_MultiProcessorEx_AddressLength_Set
 212              		.thumb
 213              		.thumb_func
 215              	HAL_MultiProcessorEx_AddressLength_Set:
 216              	.LFB127:
 363:Drivers/STM32L4xx_HAL_Driver/Src/stm32l4xx_hal_uart_ex.c ****   /* Check the UART handle allocation */
 217              		.loc 1 363 0
 218              		.cfi_startproc
 219              		@ args = 0, pretend = 0, frame = 0
ARM GAS  /tmp/ccpYhBeZ.s 			page 20


 220              		@ frame_needed = 0, uses_anonymous_args = 0
 221              	.LVL16:
 365:Drivers/STM32L4xx_HAL_Driver/Src/stm32l4xx_hal_uart_ex.c ****   {
 222              		.loc 1 365 0
 223 0000 B0B1     		cbz	r0, .L13
 363:Drivers/STM32L4xx_HAL_Driver/Src/stm32l4xx_hal_uart_ex.c ****   /* Check the UART handle allocation */
 224              		.loc 1 363 0
 225 0002 08B5     		push	{r3, lr}
 226              	.LCFI5:
 227              		.cfi_def_cfa_offset 8
 228              		.cfi_offset 3, -8
 229              		.cfi_offset 14, -4
 373:Drivers/STM32L4xx_HAL_Driver/Src/stm32l4xx_hal_uart_ex.c ****   
 230              		.loc 1 373 0
 231 0004 2423     		movs	r3, #36
 232 0006 80F87130 		strb	r3, [r0, #113]
 376:Drivers/STM32L4xx_HAL_Driver/Src/stm32l4xx_hal_uart_ex.c ****   
 233              		.loc 1 376 0
 234 000a 0268     		ldr	r2, [r0]
 235 000c 1368     		ldr	r3, [r2]
 236 000e 23F00103 		bic	r3, r3, #1
 237 0012 1360     		str	r3, [r2]
 379:Drivers/STM32L4xx_HAL_Driver/Src/stm32l4xx_hal_uart_ex.c ****   
 238              		.loc 1 379 0
 239 0014 0268     		ldr	r2, [r0]
 240 0016 5368     		ldr	r3, [r2, #4]
 241 0018 23F01003 		bic	r3, r3, #16
 242 001c 1943     		orrs	r1, r1, r3
 243              	.LVL17:
 244 001e 5160     		str	r1, [r2, #4]
 382:Drivers/STM32L4xx_HAL_Driver/Src/stm32l4xx_hal_uart_ex.c ****   
 245              		.loc 1 382 0
 246 0020 0268     		ldr	r2, [r0]
 247 0022 1368     		ldr	r3, [r2]
 248 0024 43F00103 		orr	r3, r3, #1
 249 0028 1360     		str	r3, [r2]
 385:Drivers/STM32L4xx_HAL_Driver/Src/stm32l4xx_hal_uart_ex.c **** }
 250              		.loc 1 385 0
 251 002a FFF7FEFF 		bl	UART_CheckIdleState
 252              	.LVL18:
 253 002e 08BD     		pop	{r3, pc}
 254              	.LVL19:
 255              	.L13:
 256              	.LCFI6:
 257              		.cfi_def_cfa_offset 0
 258              		.cfi_restore 3
 259              		.cfi_restore 14
 367:Drivers/STM32L4xx_HAL_Driver/Src/stm32l4xx_hal_uart_ex.c ****   }
 260              		.loc 1 367 0
 261 0030 0120     		movs	r0, #1
 262              	.LVL20:
 263 0032 7047     		bx	lr
 264              		.cfi_endproc
 265              	.LFE127:
 267              		.section	.text.HAL_UARTEx_StopModeWakeUpSourceConfig,"ax",%progbits
 268              		.align	2
 269              		.global	HAL_UARTEx_StopModeWakeUpSourceConfig
ARM GAS  /tmp/ccpYhBeZ.s 			page 21


 270              		.thumb
 271              		.thumb_func
 273              	HAL_UARTEx_StopModeWakeUpSourceConfig:
 274              	.LFB128:
 402:Drivers/STM32L4xx_HAL_Driver/Src/stm32l4xx_hal_uart_ex.c ****   HAL_StatusTypeDef status = HAL_OK;
 275              		.loc 1 402 0
 276              		.cfi_startproc
 277              		@ args = 0, pretend = 0, frame = 8
 278              		@ frame_needed = 0, uses_anonymous_args = 0
 279              	.LVL21:
 280 0000 10B5     		push	{r4, lr}
 281              	.LCFI7:
 282              		.cfi_def_cfa_offset 8
 283              		.cfi_offset 4, -8
 284              		.cfi_offset 14, -4
 285 0002 84B0     		sub	sp, sp, #16
 286              	.LCFI8:
 287              		.cfi_def_cfa_offset 24
 288 0004 04AB     		add	r3, sp, #16
 289 0006 03E90600 		stmdb	r3, {r1, r2}
 290              	.LVL22:
 412:Drivers/STM32L4xx_HAL_Driver/Src/stm32l4xx_hal_uart_ex.c ****   
 291              		.loc 1 412 0
 292 000a 90F87030 		ldrb	r3, [r0, #112]	@ zero_extendqisi2
 293 000e 012B     		cmp	r3, #1
 294 0010 33D0     		beq	.L20
 295 0012 0446     		mov	r4, r0
 412:Drivers/STM32L4xx_HAL_Driver/Src/stm32l4xx_hal_uart_ex.c ****   
 296              		.loc 1 412 0 is_stmt 0 discriminator 2
 297 0014 0123     		movs	r3, #1
 298 0016 80F87030 		strb	r3, [r0, #112]
 414:Drivers/STM32L4xx_HAL_Driver/Src/stm32l4xx_hal_uart_ex.c ****   
 299              		.loc 1 414 0 is_stmt 1 discriminator 2
 300 001a 2423     		movs	r3, #36
 301 001c 80F87130 		strb	r3, [r0, #113]
 417:Drivers/STM32L4xx_HAL_Driver/Src/stm32l4xx_hal_uart_ex.c ****   
 302              		.loc 1 417 0 discriminator 2
 303 0020 0268     		ldr	r2, [r0]
 304 0022 1368     		ldr	r3, [r2]
 305 0024 23F00103 		bic	r3, r3, #1
 306 0028 1360     		str	r3, [r2]
 420:Drivers/STM32L4xx_HAL_Driver/Src/stm32l4xx_hal_uart_ex.c ****   
 307              		.loc 1 420 0 discriminator 2
 308 002a 0168     		ldr	r1, [r0]
 309 002c 8B68     		ldr	r3, [r1, #8]
 310 002e 23F44013 		bic	r3, r3, #3145728
 311 0032 029A     		ldr	r2, [sp, #8]
 312 0034 1343     		orrs	r3, r3, r2
 313 0036 8B60     		str	r3, [r1, #8]
 422:Drivers/STM32L4xx_HAL_Driver/Src/stm32l4xx_hal_uart_ex.c ****   {
 314              		.loc 1 422 0 discriminator 2
 315 0038 22B9     		cbnz	r2, .L18
 424:Drivers/STM32L4xx_HAL_Driver/Src/stm32l4xx_hal_uart_ex.c ****   }
 316              		.loc 1 424 0
 317 003a 04AB     		add	r3, sp, #16
 318 003c 13E90600 		ldmdb	r3, {r1, r2}
 319 0040 FFF7FEFF 		bl	UARTEx_Wakeup_AddressConfig
ARM GAS  /tmp/ccpYhBeZ.s 			page 22


 320              	.LVL23:
 321              	.L18:
 428:Drivers/STM32L4xx_HAL_Driver/Src/stm32l4xx_hal_uart_ex.c ****   
 322              		.loc 1 428 0
 323 0044 2268     		ldr	r2, [r4]
 324 0046 1368     		ldr	r3, [r2]
 325 0048 43F00103 		orr	r3, r3, #1
 326 004c 1360     		str	r3, [r2]
 431:Drivers/STM32L4xx_HAL_Driver/Src/stm32l4xx_hal_uart_ex.c ****   
 327              		.loc 1 431 0
 328 004e FFF7FEFF 		bl	HAL_GetTick
 329              	.LVL24:
 330 0052 0346     		mov	r3, r0
 331              	.LVL25:
 434:Drivers/STM32L4xx_HAL_Driver/Src/stm32l4xx_hal_uart_ex.c ****   {
 332              		.loc 1 434 0
 333 0054 6FF07E42 		mvn	r2, #-33554432
 334 0058 0092     		str	r2, [sp]
 335 005a 2046     		mov	r0, r4
 336              	.LVL26:
 337 005c 4FF48001 		mov	r1, #4194304
 338 0060 0022     		movs	r2, #0
 339 0062 FFF7FEFF 		bl	UART_WaitOnFlagUntilTimeout
 340              	.LVL27:
 341 0066 18B9     		cbnz	r0, .L21
 441:Drivers/STM32L4xx_HAL_Driver/Src/stm32l4xx_hal_uart_ex.c ****   }
 342              		.loc 1 441 0
 343 0068 2023     		movs	r3, #32
 344 006a 84F87130 		strb	r3, [r4, #113]
 345 006e 00E0     		b	.L19
 346              	.L21:
 436:Drivers/STM32L4xx_HAL_Driver/Src/stm32l4xx_hal_uart_ex.c ****   }
 347              		.loc 1 436 0
 348 0070 0320     		movs	r0, #3
 349              	.L19:
 350              	.LVL28:
 445:Drivers/STM32L4xx_HAL_Driver/Src/stm32l4xx_hal_uart_ex.c ****   
 351              		.loc 1 445 0
 352 0072 0023     		movs	r3, #0
 353 0074 84F87030 		strb	r3, [r4, #112]
 447:Drivers/STM32L4xx_HAL_Driver/Src/stm32l4xx_hal_uart_ex.c **** }
 354              		.loc 1 447 0
 355 0078 00E0     		b	.L17
 356              	.LVL29:
 357              	.L20:
 412:Drivers/STM32L4xx_HAL_Driver/Src/stm32l4xx_hal_uart_ex.c ****   
 358              		.loc 1 412 0
 359 007a 0220     		movs	r0, #2
 360              	.LVL30:
 361              	.L17:
 448:Drivers/STM32L4xx_HAL_Driver/Src/stm32l4xx_hal_uart_ex.c **** 
 362              		.loc 1 448 0
 363 007c 04B0     		add	sp, sp, #16
 364              	.LCFI9:
 365              		.cfi_def_cfa_offset 8
 366              		@ sp needed
 367 007e 10BD     		pop	{r4, pc}
ARM GAS  /tmp/ccpYhBeZ.s 			page 23


 368              		.cfi_endproc
 369              	.LFE128:
 371              		.section	.text.HAL_UARTEx_EnableStopMode,"ax",%progbits
 372              		.align	2
 373              		.global	HAL_UARTEx_EnableStopMode
 374              		.thumb
 375              		.thumb_func
 377              	HAL_UARTEx_EnableStopMode:
 378              	.LFB129:
 458:Drivers/STM32L4xx_HAL_Driver/Src/stm32l4xx_hal_uart_ex.c ****   /* Process Locked */
 379              		.loc 1 458 0
 380              		.cfi_startproc
 381              		@ args = 0, pretend = 0, frame = 0
 382              		@ frame_needed = 0, uses_anonymous_args = 0
 383              		@ link register save eliminated.
 384              	.LVL31:
 460:Drivers/STM32L4xx_HAL_Driver/Src/stm32l4xx_hal_uart_ex.c ****   
 385              		.loc 1 460 0
 386 0000 90F87030 		ldrb	r3, [r0, #112]	@ zero_extendqisi2
 387 0004 012B     		cmp	r3, #1
 388 0006 12D0     		beq	.L25
 460:Drivers/STM32L4xx_HAL_Driver/Src/stm32l4xx_hal_uart_ex.c ****   
 389              		.loc 1 460 0 is_stmt 0 discriminator 2
 390 0008 0123     		movs	r3, #1
 391 000a 80F87030 		strb	r3, [r0, #112]
 462:Drivers/STM32L4xx_HAL_Driver/Src/stm32l4xx_hal_uart_ex.c ****   
 392              		.loc 1 462 0 is_stmt 1 discriminator 2
 393 000e 2423     		movs	r3, #36
 394 0010 80F87130 		strb	r3, [r0, #113]
 465:Drivers/STM32L4xx_HAL_Driver/Src/stm32l4xx_hal_uart_ex.c ****   
 395              		.loc 1 465 0 discriminator 2
 396 0014 0268     		ldr	r2, [r0]
 397 0016 1368     		ldr	r3, [r2]
 398 0018 43F00203 		orr	r3, r3, #2
 399 001c 1360     		str	r3, [r2]
 467:Drivers/STM32L4xx_HAL_Driver/Src/stm32l4xx_hal_uart_ex.c ****   
 400              		.loc 1 467 0 discriminator 2
 401 001e 2023     		movs	r3, #32
 402 0020 80F87130 		strb	r3, [r0, #113]
 470:Drivers/STM32L4xx_HAL_Driver/Src/stm32l4xx_hal_uart_ex.c ****   
 403              		.loc 1 470 0 discriminator 2
 404 0024 0023     		movs	r3, #0
 405 0026 80F87030 		strb	r3, [r0, #112]
 472:Drivers/STM32L4xx_HAL_Driver/Src/stm32l4xx_hal_uart_ex.c **** }
 406              		.loc 1 472 0 discriminator 2
 407 002a 1846     		mov	r0, r3
 408              	.LVL32:
 409 002c 7047     		bx	lr
 410              	.LVL33:
 411              	.L25:
 460:Drivers/STM32L4xx_HAL_Driver/Src/stm32l4xx_hal_uart_ex.c ****   
 412              		.loc 1 460 0
 413 002e 0220     		movs	r0, #2
 414              	.LVL34:
 473:Drivers/STM32L4xx_HAL_Driver/Src/stm32l4xx_hal_uart_ex.c **** 
 415              		.loc 1 473 0
 416 0030 7047     		bx	lr
ARM GAS  /tmp/ccpYhBeZ.s 			page 24


 417              		.cfi_endproc
 418              	.LFE129:
 420 0032 00BF     		.section	.text.HAL_UARTEx_DisableStopMode,"ax",%progbits
 421              		.align	2
 422              		.global	HAL_UARTEx_DisableStopMode
 423              		.thumb
 424              		.thumb_func
 426              	HAL_UARTEx_DisableStopMode:
 427              	.LFB130:
 481:Drivers/STM32L4xx_HAL_Driver/Src/stm32l4xx_hal_uart_ex.c ****   /* Process Locked */
 428              		.loc 1 481 0
 429              		.cfi_startproc
 430              		@ args = 0, pretend = 0, frame = 0
 431              		@ frame_needed = 0, uses_anonymous_args = 0
 432              		@ link register save eliminated.
 433              	.LVL35:
 483:Drivers/STM32L4xx_HAL_Driver/Src/stm32l4xx_hal_uart_ex.c ****   
 434              		.loc 1 483 0
 435 0000 90F87030 		ldrb	r3, [r0, #112]	@ zero_extendqisi2
 436 0004 012B     		cmp	r3, #1
 437 0006 12D0     		beq	.L28
 483:Drivers/STM32L4xx_HAL_Driver/Src/stm32l4xx_hal_uart_ex.c ****   
 438              		.loc 1 483 0 is_stmt 0 discriminator 2
 439 0008 0123     		movs	r3, #1
 440 000a 80F87030 		strb	r3, [r0, #112]
 485:Drivers/STM32L4xx_HAL_Driver/Src/stm32l4xx_hal_uart_ex.c ****   
 441              		.loc 1 485 0 is_stmt 1 discriminator 2
 442 000e 2423     		movs	r3, #36
 443 0010 80F87130 		strb	r3, [r0, #113]
 488:Drivers/STM32L4xx_HAL_Driver/Src/stm32l4xx_hal_uart_ex.c ****   
 444              		.loc 1 488 0 discriminator 2
 445 0014 0268     		ldr	r2, [r0]
 446 0016 1368     		ldr	r3, [r2]
 447 0018 23F00203 		bic	r3, r3, #2
 448 001c 1360     		str	r3, [r2]
 490:Drivers/STM32L4xx_HAL_Driver/Src/stm32l4xx_hal_uart_ex.c ****   
 449              		.loc 1 490 0 discriminator 2
 450 001e 2023     		movs	r3, #32
 451 0020 80F87130 		strb	r3, [r0, #113]
 493:Drivers/STM32L4xx_HAL_Driver/Src/stm32l4xx_hal_uart_ex.c ****   
 452              		.loc 1 493 0 discriminator 2
 453 0024 0023     		movs	r3, #0
 454 0026 80F87030 		strb	r3, [r0, #112]
 495:Drivers/STM32L4xx_HAL_Driver/Src/stm32l4xx_hal_uart_ex.c **** }
 455              		.loc 1 495 0 discriminator 2
 456 002a 1846     		mov	r0, r3
 457              	.LVL36:
 458 002c 7047     		bx	lr
 459              	.LVL37:
 460              	.L28:
 483:Drivers/STM32L4xx_HAL_Driver/Src/stm32l4xx_hal_uart_ex.c ****   
 461              		.loc 1 483 0
 462 002e 0220     		movs	r0, #2
 463              	.LVL38:
 496:Drivers/STM32L4xx_HAL_Driver/Src/stm32l4xx_hal_uart_ex.c **** 
 464              		.loc 1 496 0
 465 0030 7047     		bx	lr
ARM GAS  /tmp/ccpYhBeZ.s 			page 25


 466              		.cfi_endproc
 467              	.LFE130:
 469 0032 00BF     		.text
 470              	.Letext0:
 471              		.file 2 "/usr/include/newlib/machine/_default_types.h"
 472              		.file 3 "/usr/include/newlib/sys/_stdint.h"
 473              		.file 4 "Drivers/CMSIS/Device/ST/STM32L4xx/Include/stm32l432xx.h"
 474              		.file 5 "Drivers/CMSIS/Device/ST/STM32L4xx/Include/stm32l4xx.h"
 475              		.file 6 "Drivers/STM32L4xx_HAL_Driver/Inc/stm32l4xx_hal_def.h"
 476              		.file 7 "Drivers/STM32L4xx_HAL_Driver/Inc/stm32l4xx_hal_dma.h"
 477              		.file 8 "Drivers/STM32L4xx_HAL_Driver/Inc/stm32l4xx_hal_uart.h"
 478              		.file 9 "Drivers/STM32L4xx_HAL_Driver/Inc/stm32l4xx_hal_uart_ex.h"
 479              		.file 10 "Drivers/CMSIS/Include/core_cm4.h"
 480              		.file 11 "Drivers/STM32L4xx_HAL_Driver/Inc/stm32l4xx_hal.h"
ARM GAS  /tmp/ccpYhBeZ.s 			page 26

